SF:/home/andy/dev/euler-rust/7-10001st-prime/src/lib.rs
FN:8,_RNvMCs2MjpkhoFfOH_11prime_10001NtB2_6Primes3new
FN:15,_RNvMCs2MjpkhoFfOH_11prime_10001NtB2_6Primes9add_prime
FN:20,_RNvMCs2MjpkhoFfOH_11prime_10001NtB2_6Primes17fill_primes_until
FN:29,_RNvMCs2MjpkhoFfOH_11prime_10001NtB2_6Primes8contains
FN:33,_RNvMCs2MjpkhoFfOH_11prime_10001NtB2_6Primes8is_prime
FN:37,_RNvMCs2MjpkhoFfOH_11prime_10001NtB2_6Primes17current_max_prime
FN:56,_RNvNtCs2MjpkhoFfOH_11prime_100015testss_25test_construct_new_struct
FN:67,_RNvNtCs2MjpkhoFfOH_11prime_100015testss_14test_add_prime
FN:76,_RNvNtCs2MjpkhoFfOH_11prime_100015testss_24test_fill_primes_until_3
FN:86,_RNvNtCs2MjpkhoFfOH_11prime_100015testss_24test_fill_primes_until_5
FN:98,_RNvNtCs2MjpkhoFfOH_11prime_100015testss_21test_n_primes_below_m
FN:22,_RNCNvMCs2MjpkhoFfOH_11prime_10001NtB4_6Primes17fill_primes_until0B4_
FN:34,_RNCNvMCs2MjpkhoFfOH_11prime_10001NtB4_6Primes8is_prime0B4_
FN:45,_RNvMCs2MjpkhoFfOH_11prime_10001NtB2_6Primes20prime_number_theorem
FNDA:7,_RNvMCs2MjpkhoFfOH_11prime_10001NtB2_6Primes3new
FNDA:28,_RNvMCs2MjpkhoFfOH_11prime_10001NtB2_6Primes9add_prime
FNDA:5,_RNvMCs2MjpkhoFfOH_11prime_10001NtB2_6Primes17fill_primes_until
FNDA:8,_RNvMCs2MjpkhoFfOH_11prime_10001NtB2_6Primes8contains
FNDA:63,_RNvMCs2MjpkhoFfOH_11prime_10001NtB2_6Primes8is_prime
FNDA:5,_RNvMCs2MjpkhoFfOH_11prime_10001NtB2_6Primes17current_max_prime
FNDA:1,_RNvNtCs2MjpkhoFfOH_11prime_100015testss_25test_construct_new_struct
FNDA:1,_RNvNtCs2MjpkhoFfOH_11prime_100015testss_14test_add_prime
FNDA:1,_RNvNtCs2MjpkhoFfOH_11prime_100015testss_24test_fill_primes_until_3
FNDA:1,_RNvNtCs2MjpkhoFfOH_11prime_100015testss_24test_fill_primes_until_5
FNDA:1,_RNvNtCs2MjpkhoFfOH_11prime_100015testss_21test_n_primes_below_m
FNDA:63,_RNCNvMCs2MjpkhoFfOH_11prime_10001NtB4_6Primes17fill_primes_until0B4_
FNDA:128,_RNCNvMCs2MjpkhoFfOH_11prime_10001NtB4_6Primes8is_prime0B4_
FNDA:0,_RNvMCs2MjpkhoFfOH_11prime_10001NtB2_6Primes20prime_number_theorem
FNF:14
FNH:13
DA:8,7
DA:9,7
DA:10,7
DA:11,7
DA:12,7
DA:13,7
DA:15,28
DA:16,28
DA:17,28
DA:18,28
DA:20,5
DA:21,5
DA:22,63
DA:23,63
DA:24,27
DA:25,36
DA:26,63
DA:27,5
DA:29,8
DA:30,8
DA:31,8
DA:33,63
DA:34,128
DA:35,63
DA:37,5
DA:38,5
DA:39,0
DA:41,5
DA:43,5
DA:45,0
DA:46,0
DA:47,0
DA:56,1
DA:57,1
DA:58,1
DA:59,1
DA:60,1
DA:61,1
DA:62,1
DA:63,1
DA:64,1
DA:67,1
DA:68,1
DA:69,1
DA:70,1
DA:71,1
DA:72,1
DA:73,1
DA:76,1
DA:77,1
DA:78,1
DA:79,1
DA:80,1
DA:81,1
DA:82,1
DA:83,1
DA:86,1
DA:87,1
DA:88,1
DA:89,1
DA:90,1
DA:91,1
DA:92,1
DA:93,1
DA:94,1
DA:95,1
DA:98,1
DA:99,1
DA:100,1
DA:101,1
DA:103,1
DA:104,1
DA:105,1
DA:107,1
DA:108,1
DA:109,1
DA:110,1
BRF:0
BRH:0
LF:80
LH:76
end_of_record
SF:/home/andy/dev/euler-rust/7-10001st-prime/src/main.rs
FN:1,_RNvCsiuqYAgXZadQ_11prime_100014main
FNDA:0,_RNvCsiuqYAgXZadQ_11prime_100014main
FNF:1
FNH:0
DA:1,0
DA:2,0
DA:3,0
BRF:0
BRH:0
LF:3
LH:0
end_of_record