SF:/home/andy/dev/euler-rust/13-large-sum/src/add_two_numbers.rs
FN:269,_RNCNvNtNtCsifpZbkNyWKT_9large_sum15add_two_numbers5testss_43can_convert_from_vector_of_digits_to_number0B7_
FN:143,_RNvNtNtCsifpZbkNyWKT_9large_sum15add_two_numbers5tests4nums
FN:151,_RNvNtNtCsifpZbkNyWKT_9large_sum15add_two_numbers5testss_24can_get_digit_n_from_end
FN:164,_RNvNtNtCsifpZbkNyWKT_9large_sum15add_two_numbers5testss_26can_get_digit_n_from_start
FN:177,_RNvNtNtCsifpZbkNyWKT_9large_sum15add_two_numbers5testss_49can_represent_50_digit_number_as_vector_of_digits
FN:185,_RNvNtNtCsifpZbkNyWKT_9large_sum15add_two_numbers5testss_53can_get_len_of_number_represented_as_vector_of_digits
FN:193,_RNvNtNtCsifpZbkNyWKT_9large_sum15add_two_numbers5testss_32can_test_whether_number_is_empty
FN:202,_RNvNtNtCsifpZbkNyWKT_9large_sum15add_two_numbers5testss_48panics_when_number_contains_non_digit_characters
FN:208,_RNvNtNtCsifpZbkNyWKT_9large_sum15add_two_numbers5testss_33can_iterate_over_digits_in_number
FN:226,_RNvNtNtCsifpZbkNyWKT_9large_sum15add_two_numbers5testss_38can_convert_number_to_vector_of_digits
FN:240,_RNvNtNtCsifpZbkNyWKT_9large_sum15add_two_numbers5testss_43converting_number_to_vector_pads_with_zeros
FN:251,_RNvNtNtCsifpZbkNyWKT_9large_sum15add_two_numbers5testss_26can_create_numvec_from_str
FN:264,_RNvNtNtCsifpZbkNyWKT_9large_sum15add_two_numbers5testss_43can_convert_from_vector_of_digits_to_number
FN:276,_RNvNtNtCsifpZbkNyWKT_9large_sum15add_two_numbers5testss_30can_add_two_numbers_as_vectors
FN:287,_RNvNtNtCsifpZbkNyWKT_9large_sum15add_two_numbers5testss_30can_add_two_numbers_with_carry
FN:298,_RNvNtNtCsifpZbkNyWKT_9large_sum15add_two_numbers5testss_42can_add_two_numbers_with_different_lengths
FN:309,_RNvNtNtCsifpZbkNyWKT_9large_sum15add_two_numbers5testss_52can_add_two_numbers_with_different_lengths_and_carry
FN:320,_RNvNtNtCsifpZbkNyWKT_9large_sum15add_two_numbers5testss_21can_add_three_numbers
FN:332,_RNvNtNtCsifpZbkNyWKT_9large_sum15add_two_numbers5testss_32can_add_three_numbers_with_carry
FN:7,_RNvMNtCsifpZbkNyWKT_9large_sum15add_two_numbersNtB2_6NumVec19is_each_digit_valid
FN:11,_RNvMNtCsifpZbkNyWKT_9large_sum15add_two_numbersNtB2_6NumVec3new
FN:19,_RNvMNtCsifpZbkNyWKT_9large_sum15add_two_numbersNtB2_6NumVec3len
FN:24,_RNvMNtCsifpZbkNyWKT_9large_sum15add_two_numbersNtB2_6NumVec8is_empty
FN:28,_RNvMNtCsifpZbkNyWKT_9large_sum15add_two_numbersNtB2_6NumVec12n_from_start
FN:33,_RNvMNtCsifpZbkNyWKT_9large_sum15add_two_numbersNtB2_6NumVec10n_from_end
FN:40,_RNvMNtCsifpZbkNyWKT_9large_sum15add_two_numbersNtB2_6NumVec16to_vec_with_size
FN:61,_RNvMNtCsifpZbkNyWKT_9large_sum15add_two_numbersNtB2_6NumVec10add_digits
FN:79,_RNvMNtCsifpZbkNyWKT_9large_sum15add_two_numbersNtB2_6NumVec27get_element_wise_sum_vector
FN:87,_RNvMNtCsifpZbkNyWKT_9large_sum15add_two_numbersNtB2_6NumVec32convert_sum_vector_to_sum_string
FN:118,_RNvXs_NtCsifpZbkNyWKT_9large_sum15add_two_numbersNtB4_6NumVecNtNtNtNtCs5cYH0lLSdLc_4core4iter6traits8iterator8Iterator4next
FN:132,_RNvXs0_NtCsifpZbkNyWKT_9large_sum15add_two_numbersNtB5_6NumVecNtNtNtCs5cYH0lLSdLc_4core3str6traits7FromStr8from_str
FN:8,_RNCNvMNtCsifpZbkNyWKT_9large_sum15add_two_numbersNtB4_6NumVec19is_each_digit_valid0B6_
FN:62,_RNCNvMNtCsifpZbkNyWKT_9large_sum15add_two_numbersNtB4_6NumVec10add_digits0B6_
FN:66,_RNCNvMNtCsifpZbkNyWKT_9large_sum15add_two_numbersNtB4_6NumVec10add_digitss_0B6_
FN:70,_RNCNvMNtCsifpZbkNyWKT_9large_sum15add_two_numbersNtB4_6NumVec10add_digitss0_0B6_
FN:81,_RNCNvMNtCsifpZbkNyWKT_9large_sum15add_two_numbersNtB4_6NumVec27get_element_wise_sum_vector0B6_
FN:91,_RNCNvMNtCsifpZbkNyWKT_9large_sum15add_two_numbersNtB4_6NumVec32convert_sum_vector_to_sum_string0B6_
FN:109,_RNCNvMNtCsifpZbkNyWKT_9large_sum15add_two_numbersNtB4_6NumVec32convert_sum_vector_to_sum_strings_0B6_
FNDA:50,_RNCNvNtNtCsifpZbkNyWKT_9large_sum15add_two_numbers5testss_43can_convert_from_vector_of_digits_to_number0B7_
FNDA:2,_RNvNtNtCsifpZbkNyWKT_9large_sum15add_two_numbers5tests4nums
FNDA:1,_RNvNtNtCsifpZbkNyWKT_9large_sum15add_two_numbers5testss_24can_get_digit_n_from_end
FNDA:1,_RNvNtNtCsifpZbkNyWKT_9large_sum15add_two_numbers5testss_26can_get_digit_n_from_start
FNDA:1,_RNvNtNtCsifpZbkNyWKT_9large_sum15add_two_numbers5testss_49can_represent_50_digit_number_as_vector_of_digits
FNDA:1,_RNvNtNtCsifpZbkNyWKT_9large_sum15add_two_numbers5testss_53can_get_len_of_number_represented_as_vector_of_digits
FNDA:1,_RNvNtNtCsifpZbkNyWKT_9large_sum15add_two_numbers5testss_32can_test_whether_number_is_empty
FNDA:1,_RNvNtNtCsifpZbkNyWKT_9large_sum15add_two_numbers5testss_48panics_when_number_contains_non_digit_characters
FNDA:1,_RNvNtNtCsifpZbkNyWKT_9large_sum15add_two_numbers5testss_33can_iterate_over_digits_in_number
FNDA:1,_RNvNtNtCsifpZbkNyWKT_9large_sum15add_two_numbers5testss_38can_convert_number_to_vector_of_digits
FNDA:1,_RNvNtNtCsifpZbkNyWKT_9large_sum15add_two_numbers5testss_43converting_number_to_vector_pads_with_zeros
FNDA:1,_RNvNtNtCsifpZbkNyWKT_9large_sum15add_two_numbers5testss_26can_create_numvec_from_str
FNDA:1,_RNvNtNtCsifpZbkNyWKT_9large_sum15add_two_numbers5testss_43can_convert_from_vector_of_digits_to_number
FNDA:1,_RNvNtNtCsifpZbkNyWKT_9large_sum15add_two_numbers5testss_30can_add_two_numbers_as_vectors
FNDA:1,_RNvNtNtCsifpZbkNyWKT_9large_sum15add_two_numbers5testss_30can_add_two_numbers_with_carry
FNDA:1,_RNvNtNtCsifpZbkNyWKT_9large_sum15add_two_numbers5testss_42can_add_two_numbers_with_different_lengths
FNDA:1,_RNvNtNtCsifpZbkNyWKT_9large_sum15add_two_numbers5testss_52can_add_two_numbers_with_different_lengths_and_carry
FNDA:1,_RNvNtNtCsifpZbkNyWKT_9large_sum15add_two_numbers5testss_21can_add_three_numbers
FNDA:1,_RNvNtNtCsifpZbkNyWKT_9large_sum15add_two_numbers5testss_32can_add_three_numbers_with_carry
FNDA:41,_RNvMNtCsifpZbkNyWKT_9large_sum15add_two_numbersNtB2_6NumVec19is_each_digit_valid
FNDA:41,_RNvMNtCsifpZbkNyWKT_9large_sum15add_two_numbersNtB2_6NumVec3new
FNDA:187,_RNvMNtCsifpZbkNyWKT_9large_sum15add_two_numbersNtB2_6NumVec3len
FNDA:1,_RNvMNtCsifpZbkNyWKT_9large_sum15add_two_numbersNtB2_6NumVec8is_empty
FNDA:154,_RNvMNtCsifpZbkNyWKT_9large_sum15add_two_numbersNtB2_6NumVec12n_from_start
FNDA:4,_RNvMNtCsifpZbkNyWKT_9large_sum15add_two_numbersNtB2_6NumVec10n_from_end
FNDA:17,_RNvMNtCsifpZbkNyWKT_9large_sum15add_two_numbersNtB2_6NumVec16to_vec_with_size
FNDA:6,_RNvMNtCsifpZbkNyWKT_9large_sum15add_two_numbersNtB2_6NumVec10add_digits
FNDA:14,_RNvMNtCsifpZbkNyWKT_9large_sum15add_two_numbersNtB2_6NumVec27get_element_wise_sum_vector
FNDA:6,_RNvMNtCsifpZbkNyWKT_9large_sum15add_two_numbersNtB2_6NumVec32convert_sum_vector_to_sum_string
FNDA:9,_RNvXs_NtCsifpZbkNyWKT_9large_sum15add_two_numbersNtB4_6NumVecNtNtNtNtCs5cYH0lLSdLc_4core4iter6traits8iterator8Iterator4next
FNDA:8,_RNvXs0_NtCsifpZbkNyWKT_9large_sum15add_two_numbersNtB5_6NumVecNtNtNtCs5cYH0lLSdLc_4core3str6traits7FromStr8from_str
FNDA:796,_RNCNvMNtCsifpZbkNyWKT_9large_sum15add_two_numbersNtB4_6NumVec19is_each_digit_valid0B6_
FNDA:14,_RNCNvMNtCsifpZbkNyWKT_9large_sum15add_two_numbersNtB4_6NumVec10add_digits0B6_
FNDA:14,_RNCNvMNtCsifpZbkNyWKT_9large_sum15add_two_numbersNtB4_6NumVec10add_digitss_0B6_
FNDA:14,_RNCNvMNtCsifpZbkNyWKT_9large_sum15add_two_numbersNtB4_6NumVec10add_digitss0_0B6_
FNDA:49,_RNCNvMNtCsifpZbkNyWKT_9large_sum15add_two_numbersNtB4_6NumVec27get_element_wise_sum_vector0B6_
FNDA:21,_RNCNvMNtCsifpZbkNyWKT_9large_sum15add_two_numbersNtB4_6NumVec32convert_sum_vector_to_sum_string0B6_
FNDA:21,_RNCNvMNtCsifpZbkNyWKT_9large_sum15add_two_numbersNtB4_6NumVec32convert_sum_vector_to_sum_strings_0B6_
FNF:38
FNH:38
DA:7,41
DA:8,796
DA:9,41
DA:11,41
DA:12,41
DA:13,40
DA:15,1
DA:17,40
DA:19,187
DA:20,187
DA:21,187
DA:24,1
DA:25,1
DA:26,1
DA:28,154
DA:29,154
DA:30,154
DA:31,154
DA:33,4
DA:34,4
DA:35,4
DA:36,4
DA:37,4
DA:38,4
DA:40,17
DA:41,17
DA:42,150
DA:43,150
DA:44,150
DA:45,17
DA:46,17
DA:61,6
DA:62,14
DA:63,6
DA:64,6
DA:65,6
DA:66,14
DA:67,6
DA:68,6
DA:69,6
DA:70,14
DA:71,14
DA:72,14
DA:73,6
DA:74,6
DA:75,6
DA:76,6
DA:77,6
DA:79,14
DA:80,14
DA:81,49
DA:82,49
DA:83,49
DA:84,14
DA:85,14
DA:87,6
DA:88,6
DA:89,6
DA:90,6
DA:91,21
DA:92,33
DA:93,12
DA:94,12
DA:95,3
DA:96,9
DA:97,9
DA:98,9
DA:100,21
DA:101,6
DA:102,6
DA:103,2
DA:104,4
DA:106,6
DA:107,6
DA:108,6
DA:109,21
DA:110,6
DA:111,6
DA:112,6
DA:118,9
DA:119,9
DA:120,0
DA:122,9
DA:123,9
DA:124,9
DA:126,9
DA:132,8
DA:133,8
DA:134,8
DA:143,2
DA:144,2
DA:145,2
DA:146,2
DA:147,2
DA:148,2
DA:151,1
DA:152,1
DA:153,1
DA:154,1
DA:155,1
DA:156,1
DA:157,1
DA:159,1
DA:160,1
DA:161,1
DA:164,1
DA:165,1
DA:166,1
DA:167,1
DA:168,1
DA:169,1
DA:170,1
DA:172,1
DA:173,1
DA:174,1
DA:177,1
DA:178,1
DA:179,1
DA:180,1
DA:181,1
DA:182,1
DA:185,1
DA:186,1
DA:187,1
DA:188,1
DA:189,1
DA:190,1
DA:193,1
DA:194,1
DA:195,1
DA:196,1
DA:197,1
DA:198,1
DA:202,1
DA:203,1
DA:204,1
DA:205,1
DA:208,1
DA:209,1
DA:210,1
DA:211,1
DA:212,1
DA:213,1
DA:214,1
DA:215,1
DA:216,1
DA:217,1
DA:218,1
DA:219,1
DA:220,1
DA:221,1
DA:222,1
DA:223,1
DA:226,1
DA:227,1
DA:228,1
DA:229,1
DA:230,1
DA:231,1
DA:232,1
DA:233,1
DA:234,1
DA:235,1
DA:236,1
DA:237,1
DA:240,1
DA:241,1
DA:242,1
DA:243,1
DA:244,1
DA:245,1
DA:246,1
DA:247,1
DA:248,1
DA:251,1
DA:252,1
DA:253,1
DA:254,1
DA:255,1
DA:256,1
DA:257,1
DA:258,1
DA:259,1
DA:260,1
DA:261,1
DA:264,1
DA:265,1
DA:266,1
DA:267,1
DA:268,1
DA:269,50
DA:270,1
DA:271,1
DA:272,1
DA:273,1
DA:276,1
DA:277,1
DA:278,1
DA:279,1
DA:280,1
DA:281,1
DA:282,1
DA:283,1
DA:284,1
DA:287,1
DA:288,1
DA:289,1
DA:290,1
DA:291,1
DA:292,1
DA:293,1
DA:294,1
DA:295,1
DA:298,1
DA:299,1
DA:300,1
DA:301,1
DA:302,1
DA:303,1
DA:304,1
DA:305,1
DA:306,1
DA:309,1
DA:310,1
DA:311,1
DA:312,1
DA:313,1
DA:314,1
DA:315,1
DA:316,1
DA:317,1
DA:320,1
DA:321,1
DA:322,1
DA:323,1
DA:324,1
DA:325,1
DA:326,1
DA:327,1
DA:328,1
DA:329,1
DA:332,1
DA:333,1
DA:334,1
DA:335,1
DA:336,1
DA:337,1
DA:338,1
DA:339,1
DA:340,1
DA:341,1
BRF:0
BRH:0
LF:262
LH:261
end_of_record
SF:/home/andy/dev/euler-rust/13-large-sum/src/main.rs
FN:1,_RNvCs3inkvR6vwNB_9large_sum4main
FNDA:0,_RNvCs3inkvR6vwNB_9large_sum4main
FNF:1
FNH:0
DA:1,0
DA:2,0
DA:3,0
BRF:0
BRH:0
LF:3
LH:0
end_of_record
SF:/home/andy/dev/euler-rust/13-large-sum/src/vector.rs
FN:117,_RNCNvNtCsifpZbkNyWKT_9large_sum6vector7get_vec0B5_
FN:125,_RNCNvNtCsifpZbkNyWKT_9large_sum6vector9sum_parts0B5_
FN:131,_RNCNvNtCsifpZbkNyWKT_9large_sum6vector22first_10_digits_of_sum0B5_
FN:132,_RNCNvNtCsifpZbkNyWKT_9large_sum6vector22first_10_digits_of_sums_0B5_
FN:176,_RNCNvNtNtCsifpZbkNyWKT_9large_sum6vector5testss_31can_sum_up_10_individual_pieces0B7_
FN:1,_RNvNtCsifpZbkNyWKT_9large_sum6vector20get_large_number_vec
FN:106,_RNvNtCsifpZbkNyWKT_9large_sum6vector19break_x_into_blocks
FN:114,_RNvNtCsifpZbkNyWKT_9large_sum6vector7get_vec
FN:124,_RNvNtCsifpZbkNyWKT_9large_sum6vector9sum_parts
FN:130,_RNvNtCsifpZbkNyWKT_9large_sum6vector22first_10_digits_of_sum
FN:142,_RNvNtNtCsifpZbkNyWKT_9large_sum6vector5testss_24break_x_into_blocks_test
FN:150,_RNvNtNtCsifpZbkNyWKT_9large_sum6vector5testss_12get_vec_test
FN:158,_RNvNtNtCsifpZbkNyWKT_9large_sum6vector5testss_28can_sum_up_individual_pieces
FN:174,_RNvNtNtCsifpZbkNyWKT_9large_sum6vector5testss_31can_sum_up_10_individual_pieces
FN:192,_RNvNtNtCsifpZbkNyWKT_9large_sum6vector5testss_30can_get_first_10_digits_of_sum
FNDA:1,_RNCNvNtCsifpZbkNyWKT_9large_sum6vector7get_vec0B5_
FNDA:12,_RNCNvNtCsifpZbkNyWKT_9large_sum6vector9sum_parts0B5_
FNDA:2,_RNCNvNtCsifpZbkNyWKT_9large_sum6vector22first_10_digits_of_sum0B5_
FNDA:2,_RNCNvNtCsifpZbkNyWKT_9large_sum6vector22first_10_digits_of_sums_0B5_
FNDA:10,_RNCNvNtNtCsifpZbkNyWKT_9large_sum6vector5testss_31can_sum_up_10_individual_pieces0B7_
FNDA:0,_RNvNtCsifpZbkNyWKT_9large_sum6vector20get_large_number_vec
FNDA:2,_RNvNtCsifpZbkNyWKT_9large_sum6vector19break_x_into_blocks
FNDA:1,_RNvNtCsifpZbkNyWKT_9large_sum6vector7get_vec
FNDA:2,_RNvNtCsifpZbkNyWKT_9large_sum6vector9sum_parts
FNDA:1,_RNvNtCsifpZbkNyWKT_9large_sum6vector22first_10_digits_of_sum
FNDA:1,_RNvNtNtCsifpZbkNyWKT_9large_sum6vector5testss_24break_x_into_blocks_test
FNDA:1,_RNvNtNtCsifpZbkNyWKT_9large_sum6vector5testss_12get_vec_test
FNDA:1,_RNvNtNtCsifpZbkNyWKT_9large_sum6vector5testss_28can_sum_up_individual_pieces
FNDA:1,_RNvNtNtCsifpZbkNyWKT_9large_sum6vector5testss_31can_sum_up_10_individual_pieces
FNDA:1,_RNvNtNtCsifpZbkNyWKT_9large_sum6vector5testss_30can_get_first_10_digits_of_sum
FNF:15
FNH:14
DA:1,0
DA:2,0
DA:3,0
DA:4,0
DA:5,0
DA:6,0
DA:7,0
DA:8,0
DA:9,0
DA:10,0
DA:11,0
DA:12,0
DA:13,0
DA:14,0
DA:15,0
DA:16,0
DA:17,0
DA:18,0
DA:19,0
DA:20,0
DA:21,0
DA:22,0
DA:23,0
DA:24,0
DA:25,0
DA:26,0
DA:27,0
DA:28,0
DA:29,0
DA:30,0
DA:31,0
DA:32,0
DA:33,0
DA:34,0
DA:35,0
DA:36,0
DA:37,0
DA:38,0
DA:39,0
DA:40,0
DA:41,0
DA:42,0
DA:43,0
DA:44,0
DA:45,0
DA:46,0
DA:47,0
DA:48,0
DA:49,0
DA:50,0
DA:51,0
DA:52,0
DA:53,0
DA:54,0
DA:55,0
DA:56,0
DA:57,0
DA:58,0
DA:59,0
DA:60,0
DA:61,0
DA:62,0
DA:63,0
DA:64,0
DA:65,0
DA:66,0
DA:67,0
DA:68,0
DA:69,0
DA:70,0
DA:71,0
DA:72,0
DA:73,0
DA:74,0
DA:75,0
DA:76,0
DA:77,0
DA:78,0
DA:79,0
DA:80,0
DA:81,0
DA:82,0
DA:83,0
DA:84,0
DA:85,0
DA:86,0
DA:87,0
DA:88,0
DA:89,0
DA:90,0
DA:91,0
DA:92,0
DA:93,0
DA:94,0
DA:95,0
DA:96,0
DA:97,0
DA:98,0
DA:99,0
DA:100,0
DA:101,0
DA:102,0
DA:103,0
DA:104,0
DA:106,2
DA:107,2
DA:108,2
DA:109,2
DA:110,2
DA:111,2
DA:112,2
DA:114,1
DA:115,1
DA:116,1
DA:117,1
DA:118,1
DA:119,1
DA:120,1
DA:121,1
DA:122,1
DA:124,2
DA:125,12
DA:126,12
DA:127,12
DA:128,2
DA:130,1
DA:131,2
DA:132,2
DA:133,1
DA:134,1
DA:142,1
DA:143,1
DA:144,1
DA:145,1
DA:146,1
DA:147,1
DA:150,1
DA:151,1
DA:152,1
DA:153,1
DA:154,1
DA:155,1
DA:158,1
DA:159,1
DA:160,1
DA:161,1
DA:162,1
DA:163,1
DA:164,1
DA:165,1
DA:166,1
DA:167,1
DA:168,1
DA:169,1
DA:170,1
DA:171,1
DA:174,1
DA:175,1
DA:176,10
DA:177,1
DA:178,1
DA:179,1
DA:180,1
DA:181,1
DA:182,1
DA:183,1
DA:184,1
DA:185,1
DA:186,1
DA:187,1
DA:188,1
DA:189,1
DA:192,1
DA:193,1
DA:194,1
DA:195,1
DA:196,1
DA:197,1
DA:198,1
DA:199,1
DA:200,1
DA:201,1
DA:202,1
DA:203,1
DA:204,1
DA:205,1
BRF:0
BRH:0
LF:193
LH:89
end_of_record