SF:/home/andy/dev/euler-rust/12-highly-divisible-triangular-number/src/integer_factorizer.rs
FN:65,_RNvNtNtCs6qDGMtG5nTu_34highly_divisible_triangular_number18integer_factorizer5tests28get_prime_factors_of_integer
FN:40,_RNvNtNtCs6qDGMtG5nTu_34highly_divisible_triangular_number18integer_factorizer5testss_27can_make_integer_factorizer
FN:48,_RNvNtNtCs6qDGMtG5nTu_34highly_divisible_triangular_number18integer_factorizer5testss_31can_take_square_root_of_integer
FN:54,_RNvNtNtCs6qDGMtG5nTu_34highly_divisible_triangular_number18integer_factorizer5testss_26can_get_prime_factors_of_2
FN:60,_RNvNtNtCs6qDGMtG5nTu_34highly_divisible_triangular_number18integer_factorizer5testss_33can_test_whether_integer_is_prime
FN:71,_RNvNtNtCs6qDGMtG5nTu_34highly_divisible_triangular_number18integer_factorizer5testss_42can_get_prime_factors_of_integers_below_20
FN:9,_RNvMNtCs6qDGMtG5nTu_34highly_divisible_triangular_number18integer_factorizerNtB2_17IntegerFactorizer3new
FN:13,_RNvMNtCs6qDGMtG5nTu_34highly_divisible_triangular_number18integer_factorizerNtB2_17IntegerFactorizer12sqrt_ceiling
FN:17,_RNvMNtCs6qDGMtG5nTu_34highly_divisible_triangular_number18integer_factorizerNtB2_17IntegerFactorizer8is_prime
FN:23,_RNvMNtCs6qDGMtG5nTu_34highly_divisible_triangular_number18integer_factorizerNtB2_17IntegerFactorizer13prime_factors
FN:29,_RNCNvMNtCs6qDGMtG5nTu_34highly_divisible_triangular_number18integer_factorizerNtB4_17IntegerFactorizer13prime_factors0B6_
FN:30,_RNCNvMNtCs6qDGMtG5nTu_34highly_divisible_triangular_number18integer_factorizerNtB4_17IntegerFactorizer13prime_factorss_0B6_
FNDA:1,_RNvNtNtCs6qDGMtG5nTu_34highly_divisible_triangular_number18integer_factorizer5tests28get_prime_factors_of_integer
FNDA:1,_RNvNtNtCs6qDGMtG5nTu_34highly_divisible_triangular_number18integer_factorizer5testss_27can_make_integer_factorizer
FNDA:1,_RNvNtNtCs6qDGMtG5nTu_34highly_divisible_triangular_number18integer_factorizer5testss_31can_take_square_root_of_integer
FNDA:1,_RNvNtNtCs6qDGMtG5nTu_34highly_divisible_triangular_number18integer_factorizer5testss_26can_get_prime_factors_of_2
FNDA:1,_RNvNtNtCs6qDGMtG5nTu_34highly_divisible_triangular_number18integer_factorizer5testss_33can_test_whether_integer_is_prime
FNDA:1,_RNvNtNtCs6qDGMtG5nTu_34highly_divisible_triangular_number18integer_factorizer5testss_42can_get_prime_factors_of_integers_below_20
FNDA:5,_RNvMNtCs6qDGMtG5nTu_34highly_divisible_triangular_number18integer_factorizerNtB2_17IntegerFactorizer3new
FNDA:3,_RNvMNtCs6qDGMtG5nTu_34highly_divisible_triangular_number18integer_factorizerNtB2_17IntegerFactorizer12sqrt_ceiling
FNDA:1,_RNvMNtCs6qDGMtG5nTu_34highly_divisible_triangular_number18integer_factorizerNtB2_17IntegerFactorizer8is_prime
FNDA:2,_RNvMNtCs6qDGMtG5nTu_34highly_divisible_triangular_number18integer_factorizerNtB2_17IntegerFactorizer13prime_factors
FNDA:2,_RNCNvMNtCs6qDGMtG5nTu_34highly_divisible_triangular_number18integer_factorizerNtB4_17IntegerFactorizer13prime_factors0B6_
FNDA:2,_RNCNvMNtCs6qDGMtG5nTu_34highly_divisible_triangular_number18integer_factorizerNtB4_17IntegerFactorizer13prime_factorss_0B6_
FNF:12
FNH:12
DA:9,5
DA:10,5
DA:11,5
DA:13,3
DA:14,3
DA:15,3
DA:17,1
DA:18,1
DA:19,1
DA:20,1
DA:21,1
DA:23,2
DA:24,2
DA:25,2
DA:26,2
DA:27,2
DA:28,2
DA:29,2
DA:30,2
DA:31,2
DA:32,2
DA:40,1
DA:41,1
DA:42,1
DA:43,1
DA:44,1
DA:45,1
DA:48,1
DA:49,1
DA:50,1
DA:51,1
DA:54,1
DA:55,1
DA:56,1
DA:57,1
DA:60,1
DA:61,1
DA:62,1
DA:63,1
DA:65,1
DA:66,1
DA:67,1
DA:68,1
DA:71,1
DA:72,1
DA:74,1
BRF:0
BRH:0
LF:48
LH:48
end_of_record
SF:/home/andy/dev/euler-rust/12-highly-divisible-triangular-number/src/main.rs
FN:2,_RNvCsfTsWh5JKXC6_34highly_divisible_triangular_number4main
FN:5,_RNCNvCsfTsWh5JKXC6_34highly_divisible_triangular_number4main0B3_
FNDA:0,_RNvCsfTsWh5JKXC6_34highly_divisible_triangular_number4main
FNDA:0,_RNCNvCsfTsWh5JKXC6_34highly_divisible_triangular_number4main0B3_
FNF:2
FNH:0
DA:2,0
DA:3,0
DA:4,0
DA:5,0
DA:6,0
DA:7,0
DA:8,0
DA:9,0
BRF:0
BRH:0
LF:10
LH:0
end_of_record
SF:/home/andy/dev/euler-rust/12-highly-divisible-triangular-number/src/prime_generator.rs
FN:56,_RNCNvMNtCs6qDGMtG5nTu_34highly_divisible_triangular_number15prime_generatorNtB4_14PrimeGenerator8is_prime0B6_
FN:72,_RNCNvMNtCs6qDGMtG5nTu_34highly_divisible_triangular_number15prime_generatorNtB4_14PrimeGenerator26is_prime_with_small_primes0B6_
FN:84,_RNCNvMNtCs6qDGMtG5nTu_34highly_divisible_triangular_number15prime_generatorNtB4_14PrimeGenerator29get_primes_below_n_with_sieve0B6_
FN:91,_RNCNvMNtCs6qDGMtG5nTu_34highly_divisible_triangular_number15prime_generatorNtB4_14PrimeGenerator29get_primes_below_n_with_sieves_0B6_
FN:96,_RNCNvMNtCs6qDGMtG5nTu_34highly_divisible_triangular_number15prime_generatorNtB4_14PrimeGenerator28get_primes_below_n_in_series0B6_
FN:103,_RNCNvMNtCs6qDGMtG5nTu_34highly_divisible_triangular_number15prime_generatorNtB4_14PrimeGenerator28get_primes_below_n_in_seriess_0B6_
FN:104,_RNCNvMNtCs6qDGMtG5nTu_34highly_divisible_triangular_number15prime_generatorNtB4_14PrimeGenerator28get_primes_below_n_in_seriess0_0B6_
FN:124,_RNCNvMNtCs6qDGMtG5nTu_34highly_divisible_triangular_number15prime_generatorNtB4_14PrimeGenerator21parallel_primes_up_to0B6_
FN:128,_RNCNvMNtCs6qDGMtG5nTu_34highly_divisible_triangular_number15prime_generatorNtB4_14PrimeGenerator21parallel_primes_up_tos_0B6_
FN:148,_RNCNvMNtCs6qDGMtG5nTu_34highly_divisible_triangular_number15prime_generatorNtB4_14PrimeGenerator27mark_larger_primes_parallel0B6_
FN:149,_RNCNvMNtCs6qDGMtG5nTu_34highly_divisible_triangular_number15prime_generatorNtB4_14PrimeGenerator27mark_larger_primes_parallels_0B6_
FN:170,_RNCNvXs0_NtCs6qDGMtG5nTu_34highly_divisible_triangular_number15prime_generatorNtB7_14PrimeGeneratorNtNtNtNtCs5cYH0lLSdLc_4core4iter6traits8iterator8Iterator4next0B9_
FN:11,_RNvMNtCs6qDGMtG5nTu_34highly_divisible_triangular_number15prime_generatorNtB2_14PrimeGenerator3new
FN:18,_RNvMNtCs6qDGMtG5nTu_34highly_divisible_triangular_number15prime_generatorNtB2_14PrimeGenerator18get_primes_below_n
FN:36,_RNvMNtCs6qDGMtG5nTu_34highly_divisible_triangular_number15prime_generatorNtB2_14PrimeGenerator3len
FN:45,_RNvMNtCs6qDGMtG5nTu_34highly_divisible_triangular_number15prime_generatorNtB2_14PrimeGenerator11current_max
FN:49,_RNvMNtCs6qDGMtG5nTu_34highly_divisible_triangular_number15prime_generatorNtB2_14PrimeGenerator9add_prime
FN:54,_RNvMNtCs6qDGMtG5nTu_34highly_divisible_triangular_number15prime_generatorNtB2_14PrimeGenerator8is_prime
FN:59,_RNvMNtCs6qDGMtG5nTu_34highly_divisible_triangular_number15prime_generatorNtB2_14PrimeGenerator9nth_prime
FN:69,_RNvMNtCs6qDGMtG5nTu_34highly_divisible_triangular_number15prime_generatorNtB2_14PrimeGenerator26is_prime_with_small_primes
FN:75,_RNvMNtCs6qDGMtG5nTu_34highly_divisible_triangular_number15prime_generatorNtB2_14PrimeGenerator29get_primes_below_n_with_sieve
FN:95,_RNvMNtCs6qDGMtG5nTu_34highly_divisible_triangular_number15prime_generatorNtB2_14PrimeGenerator28get_primes_below_n_in_series
FN:110,_RNvMNtCs6qDGMtG5nTu_34highly_divisible_triangular_number15prime_generatorNtB2_14PrimeGenerator21parallel_primes_up_to
FN:133,_RNvMNtCs6qDGMtG5nTu_34highly_divisible_triangular_number15prime_generatorNtB2_14PrimeGenerator21get_small_prime_limit
FN:137,_RNvMNtCs6qDGMtG5nTu_34highly_divisible_triangular_number15prime_generatorNtB2_14PrimeGenerator21generate_small_primes
FN:142,_RNvMNtCs6qDGMtG5nTu_34highly_divisible_triangular_number15prime_generatorNtB2_14PrimeGenerator27mark_larger_primes_parallel
FN:169,_RNvXs0_NtCs6qDGMtG5nTu_34highly_divisible_triangular_number15prime_generatorNtB5_14PrimeGeneratorNtNtNtNtCs5cYH0lLSdLc_4core4iter6traits8iterator8Iterator4next
FN:22,_RNvMNtCs6qDGMtG5nTu_34highly_divisible_triangular_number15prime_generatorNtB2_14PrimeGenerator18sum_primes_below_n
FN:27,_RNvMNtCs6qDGMtG5nTu_34highly_divisible_triangular_number15prime_generatorNtB2_14PrimeGenerator14get_next_prime
FN:41,_RNvMNtCs6qDGMtG5nTu_34highly_divisible_triangular_number15prime_generatorNtB2_14PrimeGenerator8is_empty
FN:161,_RNvXs_NtCs6qDGMtG5nTu_34highly_divisible_triangular_number15prime_generatorNtB4_14PrimeGeneratorNtNtCs5cYH0lLSdLc_4core7default7Default7default
FN:240,_RNCNvNtNtCs6qDGMtG5nTu_34highly_divisible_triangular_number15prime_generator5testss_14test_nth_prime0B7_
FN:233,_RNvNtNtCs6qDGMtG5nTu_34highly_divisible_triangular_number15prime_generator5tests13get_nth_prime
FN:190,_RNvNtNtCs6qDGMtG5nTu_34highly_divisible_triangular_number15prime_generator5testss_15can_make_object
FN:201,_RNvNtNtCs6qDGMtG5nTu_34highly_divisible_triangular_number15prime_generator5testss_21can_get_len_of_primes
FN:208,_RNvNtNtCs6qDGMtG5nTu_34highly_divisible_triangular_number15prime_generator5testss_18can_push_new_prime
FN:216,_RNvNtNtCs6qDGMtG5nTu_34highly_divisible_triangular_number15prime_generator5testss_42can_test_next_number_to_see_if_it_is_prime
FN:225,_RNvNtNtCs6qDGMtG5nTu_34highly_divisible_triangular_number15prime_generator5testss_59can_get_current_max_prime_before_and_after_adding_a_new_one
FN:239,_RNvNtNtCs6qDGMtG5nTu_34highly_divisible_triangular_number15prime_generator5testss_14test_nth_prime
FNDA:7,_RNCNvMNtCs6qDGMtG5nTu_34highly_divisible_triangular_number15prime_generatorNtB4_14PrimeGenerator8is_prime0B6_
FNDA:0,_RNCNvMNtCs6qDGMtG5nTu_34highly_divisible_triangular_number15prime_generatorNtB4_14PrimeGenerator26is_prime_with_small_primes0B6_
FNDA:0,_RNCNvMNtCs6qDGMtG5nTu_34highly_divisible_triangular_number15prime_generatorNtB4_14PrimeGenerator29get_primes_below_n_with_sieve0B6_
FNDA:0,_RNCNvMNtCs6qDGMtG5nTu_34highly_divisible_triangular_number15prime_generatorNtB4_14PrimeGenerator29get_primes_below_n_with_sieves_0B6_
FNDA:4,_RNCNvMNtCs6qDGMtG5nTu_34highly_divisible_triangular_number15prime_generatorNtB4_14PrimeGenerator28get_primes_below_n_in_series0B6_
FNDA:5,_RNCNvMNtCs6qDGMtG5nTu_34highly_divisible_triangular_number15prime_generatorNtB4_14PrimeGenerator28get_primes_below_n_in_seriess_0B6_
FNDA:5,_RNCNvMNtCs6qDGMtG5nTu_34highly_divisible_triangular_number15prime_generatorNtB4_14PrimeGenerator28get_primes_below_n_in_seriess0_0B6_
FNDA:0,_RNCNvMNtCs6qDGMtG5nTu_34highly_divisible_triangular_number15prime_generatorNtB4_14PrimeGenerator21parallel_primes_up_to0B6_
FNDA:0,_RNCNvMNtCs6qDGMtG5nTu_34highly_divisible_triangular_number15prime_generatorNtB4_14PrimeGenerator21parallel_primes_up_tos_0B6_
FNDA:0,_RNCNvMNtCs6qDGMtG5nTu_34highly_divisible_triangular_number15prime_generatorNtB4_14PrimeGenerator27mark_larger_primes_parallel0B6_
FNDA:0,_RNCNvMNtCs6qDGMtG5nTu_34highly_divisible_triangular_number15prime_generatorNtB4_14PrimeGenerator27mark_larger_primes_parallels_0B6_
FNDA:2454,_RNCNvXs0_NtCs6qDGMtG5nTu_34highly_divisible_triangular_number15prime_generatorNtB7_14PrimeGeneratorNtNtNtNtCs5cYH0lLSdLc_4core4iter6traits8iterator8Iterator4next0B9_
FNDA:108,_RNvMNtCs6qDGMtG5nTu_34highly_divisible_triangular_number15prime_generatorNtB2_14PrimeGenerator3new
FNDA:3,_RNvMNtCs6qDGMtG5nTu_34highly_divisible_triangular_number15prime_generatorNtB2_14PrimeGenerator18get_primes_below_n
FNDA:2,_RNvMNtCs6qDGMtG5nTu_34highly_divisible_triangular_number15prime_generatorNtB2_14PrimeGenerator3len
FNDA:2456,_RNvMNtCs6qDGMtG5nTu_34highly_divisible_triangular_number15prime_generatorNtB2_14PrimeGenerator11current_max
FNDA:2457,_RNvMNtCs6qDGMtG5nTu_34highly_divisible_triangular_number15prime_generatorNtB2_14PrimeGenerator9add_prime
FNDA:2457,_RNvMNtCs6qDGMtG5nTu_34highly_divisible_triangular_number15prime_generatorNtB2_14PrimeGenerator8is_prime
FNDA:100,_RNvMNtCs6qDGMtG5nTu_34highly_divisible_triangular_number15prime_generatorNtB2_14PrimeGenerator9nth_prime
FNDA:0,_RNvMNtCs6qDGMtG5nTu_34highly_divisible_triangular_number15prime_generatorNtB2_14PrimeGenerator26is_prime_with_small_primes
FNDA:0,_RNvMNtCs6qDGMtG5nTu_34highly_divisible_triangular_number15prime_generatorNtB2_14PrimeGenerator29get_primes_below_n_with_sieve
FNDA:1,_RNvMNtCs6qDGMtG5nTu_34highly_divisible_triangular_number15prime_generatorNtB2_14PrimeGenerator28get_primes_below_n_in_series
FNDA:3,_RNvMNtCs6qDGMtG5nTu_34highly_divisible_triangular_number15prime_generatorNtB2_14PrimeGenerator21parallel_primes_up_to
FNDA:0,_RNvMNtCs6qDGMtG5nTu_34highly_divisible_triangular_number15prime_generatorNtB2_14PrimeGenerator21get_small_prime_limit
FNDA:0,_RNvMNtCs6qDGMtG5nTu_34highly_divisible_triangular_number15prime_generatorNtB2_14PrimeGenerator21generate_small_primes
FNDA:0,_RNvMNtCs6qDGMtG5nTu_34highly_divisible_triangular_number15prime_generatorNtB2_14PrimeGenerator27mark_larger_primes_parallel
FNDA:2454,_RNvXs0_NtCs6qDGMtG5nTu_34highly_divisible_triangular_number15prime_generatorNtB5_14PrimeGeneratorNtNtNtNtCs5cYH0lLSdLc_4core4iter6traits8iterator8Iterator4next
FNDA:0,_RNvMNtCs6qDGMtG5nTu_34highly_divisible_triangular_number15prime_generatorNtB2_14PrimeGenerator18sum_primes_below_n
FNDA:0,_RNvMNtCs6qDGMtG5nTu_34highly_divisible_triangular_number15prime_generatorNtB2_14PrimeGenerator14get_next_prime
FNDA:0,_RNvMNtCs6qDGMtG5nTu_34highly_divisible_triangular_number15prime_generatorNtB2_14PrimeGenerator8is_empty
FNDA:0,_RNvXs_NtCs6qDGMtG5nTu_34highly_divisible_triangular_number15prime_generatorNtB4_14PrimeGeneratorNtNtCs5cYH0lLSdLc_4core7default7Default7default
FNDA:50,_RNCNvNtNtCs6qDGMtG5nTu_34highly_divisible_triangular_number15prime_generator5testss_14test_nth_prime0B7_
FNDA:50,_RNvNtNtCs6qDGMtG5nTu_34highly_divisible_triangular_number15prime_generator5tests13get_nth_prime
FNDA:1,_RNvNtNtCs6qDGMtG5nTu_34highly_divisible_triangular_number15prime_generator5testss_15can_make_object
FNDA:1,_RNvNtNtCs6qDGMtG5nTu_34highly_divisible_triangular_number15prime_generator5testss_21can_get_len_of_primes
FNDA:1,_RNvNtNtCs6qDGMtG5nTu_34highly_divisible_triangular_number15prime_generator5testss_18can_push_new_prime
FNDA:1,_RNvNtNtCs6qDGMtG5nTu_34highly_divisible_triangular_number15prime_generator5testss_42can_test_next_number_to_see_if_it_is_prime
FNDA:1,_RNvNtNtCs6qDGMtG5nTu_34highly_divisible_triangular_number15prime_generator5testss_59can_get_current_max_prime_before_and_after_adding_a_new_one
FNDA:1,_RNvNtNtCs6qDGMtG5nTu_34highly_divisible_triangular_number15prime_generator5testss_14test_nth_prime
FNF:39
FNH:23
DA:11,108
DA:12,108
DA:13,108
DA:14,108
DA:15,108
DA:16,108
DA:18,3
DA:19,3
DA:20,3
DA:22,0
DA:23,0
DA:24,0
DA:25,0
DA:27,0
DA:28,0
DA:29,0
DA:30,0
DA:31,0
DA:32,0
DA:34,0
DA:36,2
DA:37,2
DA:38,2
DA:41,0
DA:42,0
DA:43,0
DA:45,2456
DA:46,2456
DA:47,2456
DA:49,2457
DA:50,2457
DA:51,2457
DA:52,2457
DA:54,2457
DA:55,2457
DA:56,2454
DA:57,2457
DA:59,100
DA:60,100
DA:61,0
DA:62,100
DA:63,2
DA:65,98
DA:67,100
DA:69,0
DA:70,0
DA:71,0
DA:72,0
DA:73,0
DA:75,0
DA:76,0
DA:77,0
DA:78,0
DA:80,0
DA:81,0
DA:82,0
DA:83,0
DA:84,0
DA:85,0
DA:88,0
DA:89,0
DA:90,0
DA:91,0
DA:92,0
DA:93,0
DA:95,1
DA:96,4
DA:97,4
DA:98,4
DA:99,1
DA:100,1
DA:101,1
DA:102,1
DA:103,5
DA:104,5
DA:105,1
DA:106,1
DA:107,1
DA:108,1
DA:110,3
DA:111,3
DA:112,3
DA:113,3
DA:114,2
DA:115,1
DA:116,1
DA:117,0
DA:118,0
DA:119,0
DA:120,0
DA:121,0
DA:122,0
DA:123,0
DA:124,0
DA:125,0
DA:126,0
DA:127,0
DA:128,0
DA:129,0
DA:130,0
DA:131,3
DA:133,0
DA:134,0
DA:135,0
DA:137,0
DA:138,0
DA:139,0
DA:140,0
DA:142,0
DA:143,0
DA:144,0
DA:145,0
DA:146,0
DA:147,0
DA:148,0
DA:149,0
DA:150,0
DA:151,0
DA:152,0
DA:153,0
DA:154,0
DA:155,0
DA:156,0
DA:157,0
DA:161,0
DA:162,0
DA:163,0
DA:169,2454
DA:170,2454
DA:171,2454
DA:172,2454
DA:173,2454
DA:174,2454
DA:177,0
DA:178,0
DA:181,2454
DA:190,1
DA:191,1
DA:192,1
DA:193,1
DA:194,1
DA:195,1
DA:196,1
DA:197,1
DA:198,1
DA:201,1
DA:202,1
DA:203,1
DA:204,1
DA:205,1
DA:208,1
DA:209,1
DA:210,1
DA:211,1
DA:212,1
DA:213,1
DA:216,1
DA:217,1
DA:218,1
DA:220,1
DA:221,1
DA:222,1
DA:225,1
DA:226,1
DA:227,1
DA:229,1
DA:230,1
DA:231,1
DA:233,50
DA:234,50
DA:235,50
DA:236,50
DA:239,1
DA:240,50
DA:241,50
DA:242,50
DA:243,50
DA:244,1
BRF:0
BRH:0
LF:194
LH:108
end_of_record
SF:/home/andy/dev/euler-rust/12-highly-divisible-triangular-number/src/triangular_number_maker.rs
FN:40,_RNvNtNtCs6qDGMtG5nTu_34highly_divisible_triangular_number23triangular_number_maker5testss_32can_make_triangular_number_maker
FN:51,_RNvNtNtCs6qDGMtG5nTu_34highly_divisible_triangular_number23triangular_number_maker5testss_16can_make_default
FN:59,_RNvNtNtCs6qDGMtG5nTu_34highly_divisible_triangular_number23triangular_number_maker5testss_30can_get_next_triangular_number
FN:8,_RNvMNtCs6qDGMtG5nTu_34highly_divisible_triangular_number23triangular_number_makerNtB2_21TriangularNumberMaker3new
FN:17,_RNvXs_NtCs6qDGMtG5nTu_34highly_divisible_triangular_number23triangular_number_makerNtB4_21TriangularNumberMakerNtNtCs5cYH0lLSdLc_4core7default7Default7default
FN:25,_RNvXs0_NtCs6qDGMtG5nTu_34highly_divisible_triangular_number23triangular_number_makerNtB5_21TriangularNumberMakerNtNtNtNtCs5cYH0lLSdLc_4core4iter6traits8iterator8Iterator4next
FNDA:1,_RNvNtNtCs6qDGMtG5nTu_34highly_divisible_triangular_number23triangular_number_maker5testss_32can_make_triangular_number_maker
FNDA:1,_RNvNtNtCs6qDGMtG5nTu_34highly_divisible_triangular_number23triangular_number_maker5testss_16can_make_default
FNDA:1,_RNvNtNtCs6qDGMtG5nTu_34highly_divisible_triangular_number23triangular_number_maker5testss_30can_get_next_triangular_number
FNDA:4,_RNvMNtCs6qDGMtG5nTu_34highly_divisible_triangular_number23triangular_number_makerNtB2_21TriangularNumberMaker3new
FNDA:1,_RNvXs_NtCs6qDGMtG5nTu_34highly_divisible_triangular_number23triangular_number_makerNtB4_21TriangularNumberMakerNtNtCs5cYH0lLSdLc_4core7default7Default7default
FNDA:1,_RNvXs0_NtCs6qDGMtG5nTu_34highly_divisible_triangular_number23triangular_number_makerNtB5_21TriangularNumberMakerNtNtNtNtCs5cYH0lLSdLc_4core4iter6traits8iterator8Iterator4next
FNF:6
FNH:6
DA:8,4
DA:9,4
DA:10,4
DA:11,4
DA:12,4
DA:13,4
DA:17,1
DA:18,1
DA:19,1
DA:25,1
DA:26,1
DA:27,1
DA:28,1
DA:29,1
DA:30,1
DA:31,1
DA:40,1
DA:41,1
DA:42,1
DA:43,1
DA:44,1
DA:45,1
DA:46,1
DA:47,1
DA:48,1
DA:51,1
DA:52,1
DA:53,1
DA:54,1
DA:55,1
DA:56,1
DA:59,1
DA:60,1
DA:61,1
DA:62,1
DA:63,1
DA:64,1
DA:65,1
BRF:0
BRH:0
LF:38
LH:38
end_of_record
SF:/home/andy/dev/euler-rust/12-highly-divisible-triangular-number/src/triangular_numbers.rs
FN:1,_RNvNtCs6qDGMtG5nTu_34highly_divisible_triangular_number18triangular_numbers25get_first_with_n_divisors
FN:5,_RNvNtCs6qDGMtG5nTu_34highly_divisible_triangular_number18triangular_numbers21get_triangular_number
FN:9,_RNvNtCs6qDGMtG5nTu_34highly_divisible_triangular_number18triangular_numbers24count_divisors_of_number
FN:23,_RNvNtCs6qDGMtG5nTu_34highly_divisible_triangular_number18triangular_numbers22get_divisors_of_number
FN:44,_RNvNtNtCs6qDGMtG5nTu_34highly_divisible_triangular_number18triangular_numbers5testss_25can_get_triangular_number
FN:53,_RNvNtNtCs6qDGMtG5nTu_34highly_divisible_triangular_number18triangular_numbers5testss_26can_get_divisors_of_number
FN:62,_RNvNtNtCs6qDGMtG5nTu_34highly_divisible_triangular_number18triangular_numbers5testss_36can_get_number_of_divisors_of_number
FN:71,_RNvNtNtCs6qDGMtG5nTu_34highly_divisible_triangular_number18triangular_numbers5testss_47can_get_first_triangular_number_with_3_divisors
FN:2,_RNCNvNtCs6qDGMtG5nTu_34highly_divisible_triangular_number18triangular_numbers25get_first_with_n_divisors0B5_
FN:13,_RNCNvNtCs6qDGMtG5nTu_34highly_divisible_triangular_number18triangular_numbers24count_divisors_of_number0B5_
FN:13,_RNCNvNtCs6qDGMtG5nTu_34highly_divisible_triangular_number18triangular_numbers24count_divisors_of_numbers_0B5_
FN:27,_RNCNvNtCs6qDGMtG5nTu_34highly_divisible_triangular_number18triangular_numbers22get_divisors_of_number0B5_
FN:27,_RNCNvNtCs6qDGMtG5nTu_34highly_divisible_triangular_number18triangular_numbers22get_divisors_of_numbers_0B5_
FNDA:1,_RNvNtCs6qDGMtG5nTu_34highly_divisible_triangular_number18triangular_numbers25get_first_with_n_divisors
FNDA:8,_RNvNtCs6qDGMtG5nTu_34highly_divisible_triangular_number18triangular_numbers21get_triangular_number
FNDA:8,_RNvNtCs6qDGMtG5nTu_34highly_divisible_triangular_number18triangular_numbers24count_divisors_of_number
FNDA:5,_RNvNtCs6qDGMtG5nTu_34highly_divisible_triangular_number18triangular_numbers22get_divisors_of_number
FNDA:1,_RNvNtNtCs6qDGMtG5nTu_34highly_divisible_triangular_number18triangular_numbers5testss_25can_get_triangular_number
FNDA:1,_RNvNtNtCs6qDGMtG5nTu_34highly_divisible_triangular_number18triangular_numbers5testss_26can_get_divisors_of_number
FNDA:1,_RNvNtNtCs6qDGMtG5nTu_34highly_divisible_triangular_number18triangular_numbers5testss_36can_get_number_of_divisors_of_number
FNDA:1,_RNvNtNtCs6qDGMtG5nTu_34highly_divisible_triangular_number18triangular_numbers5testss_47can_get_first_triangular_number_with_3_divisors
FNDA:3,_RNCNvNtCs6qDGMtG5nTu_34highly_divisible_triangular_number18triangular_numbers25get_first_with_n_divisors0B5_
FNDA:12,_RNCNvNtCs6qDGMtG5nTu_34highly_divisible_triangular_number18triangular_numbers24count_divisors_of_number0B5_
FNDA:11,_RNCNvNtCs6qDGMtG5nTu_34highly_divisible_triangular_number18triangular_numbers24count_divisors_of_numbers_0B5_
FNDA:8,_RNCNvNtCs6qDGMtG5nTu_34highly_divisible_triangular_number18triangular_numbers22get_divisors_of_number0B5_
FNDA:7,_RNCNvNtCs6qDGMtG5nTu_34highly_divisible_triangular_number18triangular_numbers22get_divisors_of_numbers_0B5_
FNF:13
FNH:13
DA:1,1
DA:2,3
DA:3,1
DA:5,8
DA:6,8
DA:7,8
DA:9,8
DA:10,8
DA:11,8
DA:12,8
DA:13,12
DA:14,11
DA:15,11
DA:16,8
DA:17,8
DA:18,11
DA:19,8
DA:20,8
DA:21,8
DA:23,5
DA:24,5
DA:25,5
DA:26,5
DA:27,8
DA:28,7
DA:29,7
DA:30,5
DA:31,5
DA:32,7
DA:33,5
DA:34,5
DA:35,5
DA:36,5
DA:44,1
DA:45,1
DA:46,1
DA:47,1
DA:48,1
DA:49,1
DA:50,1
DA:53,1
DA:54,1
DA:55,1
DA:56,1
DA:57,1
DA:58,1
DA:59,1
DA:62,1
DA:63,1
DA:64,1
DA:65,1
DA:66,1
DA:67,1
DA:68,1
DA:71,1
DA:72,1
DA:73,1
BRF:0
BRH:0
LF:64
LH:64
end_of_record