SF:/home/andy/dev/euler-rust/8-largest-product-in-a-series/src/lib.rs
FN:147,_RNCNvNtCseaJPMLwBr3d_27largest_product_in_a_series5testss_52iterator_correctly_updates_max_product_at_some_point0B5_
FN:96,_RNvNtCseaJPMLwBr3d_27largest_product_in_a_series5testss_16can_build_struct
FN:123,_RNvNtCseaJPMLwBr3d_27largest_product_in_a_series5testss_22can_get_window_product
FN:133,_RNvNtCseaJPMLwBr3d_27largest_product_in_a_series5testss_20can_slide_the_window
FN:145,_RNvNtCseaJPMLwBr3d_27largest_product_in_a_series5testss_52iterator_correctly_updates_max_product_at_some_point
FN:155,_RNvNtCseaJPMLwBr3d_27largest_product_in_a_series5testss_38can_find_max_product_over_whole_number
FN:163,_RNvNtCseaJPMLwBr3d_27largest_product_in_a_series5testss_14can_get_length
FN:3,_RNvCseaJPMLwBr3d_27largest_product_in_a_series16find_max_product
FN:23,_RNvMCseaJPMLwBr3d_27largest_product_in_a_seriesNtB2_8Windower3new
FN:40,_RNvMCseaJPMLwBr3d_27largest_product_in_a_seriesNtB2_8Windower4prod
FN:47,_RNvMCseaJPMLwBr3d_27largest_product_in_a_seriesNtB2_8Windower16increment_window
FN:57,_RNvMCseaJPMLwBr3d_27largest_product_in_a_seriesNtB2_8Windower23get_current_max_product
FN:61,_RNvMCseaJPMLwBr3d_27largest_product_in_a_seriesNtB2_8Windower10get_number
FN:65,_RNvMCseaJPMLwBr3d_27largest_product_in_a_seriesNtB2_8Windower15get_window_size
FN:69,_RNvMCseaJPMLwBr3d_27largest_product_in_a_seriesNtB2_8Windower3len
FN:77,_RNvXs_CseaJPMLwBr3d_27largest_product_in_a_seriesNtB4_8WindowerNtNtNtNtCs5cYH0lLSdLc_4core4iter6traits8iterator8Iterator4next
FN:6,_RNCNvCseaJPMLwBr3d_27largest_product_in_a_series16find_max_product0B3_
FN:28,_RNCNvMCseaJPMLwBr3d_27largest_product_in_a_seriesNtB4_8Windower3new0B4_
FN:43,_RNCNvMCseaJPMLwBr3d_27largest_product_in_a_seriesNtB4_8Windower4prod0B4_
FNDA:3,_RNCNvNtCseaJPMLwBr3d_27largest_product_in_a_series5testss_52iterator_correctly_updates_max_product_at_some_point0B5_
FNDA:1,_RNvNtCseaJPMLwBr3d_27largest_product_in_a_series5testss_16can_build_struct
FNDA:1,_RNvNtCseaJPMLwBr3d_27largest_product_in_a_series5testss_22can_get_window_product
FNDA:1,_RNvNtCseaJPMLwBr3d_27largest_product_in_a_series5testss_20can_slide_the_window
FNDA:1,_RNvNtCseaJPMLwBr3d_27largest_product_in_a_series5testss_52iterator_correctly_updates_max_product_at_some_point
FNDA:1,_RNvNtCseaJPMLwBr3d_27largest_product_in_a_series5testss_38can_find_max_product_over_whole_number
FNDA:1,_RNvNtCseaJPMLwBr3d_27largest_product_in_a_series5testss_14can_get_length
FNDA:1,_RNvCseaJPMLwBr3d_27largest_product_in_a_series16find_max_product
FNDA:7,_RNvMCseaJPMLwBr3d_27largest_product_in_a_seriesNtB2_8Windower3new
FNDA:1002,_RNvMCseaJPMLwBr3d_27largest_product_in_a_seriesNtB2_8Windower4prod
FNDA:1001,_RNvMCseaJPMLwBr3d_27largest_product_in_a_seriesNtB2_8Windower16increment_window
FNDA:2,_RNvMCseaJPMLwBr3d_27largest_product_in_a_seriesNtB2_8Windower23get_current_max_product
FNDA:2,_RNvMCseaJPMLwBr3d_27largest_product_in_a_seriesNtB2_8Windower10get_number
FNDA:1,_RNvMCseaJPMLwBr3d_27largest_product_in_a_seriesNtB2_8Windower15get_window_size
FNDA:1,_RNvMCseaJPMLwBr3d_27largest_product_in_a_seriesNtB2_8Windower3len
FNDA:1001,_RNvXs_CseaJPMLwBr3d_27largest_product_in_a_seriesNtB4_8WindowerNtNtNtNtCs5cYH0lLSdLc_4core4iter6traits8iterator8Iterator4next
FNDA:996,_RNCNvCseaJPMLwBr3d_27largest_product_in_a_series16find_max_product0B3_
FNDA:20,_RNCNvMCseaJPMLwBr3d_27largest_product_in_a_seriesNtB4_8Windower3new0B4_
FNDA:3996,_RNCNvMCseaJPMLwBr3d_27largest_product_in_a_seriesNtB4_8Windower4prod0B4_
FNF:19
FNH:19
DA:3,1
DA:4,1
DA:5,1
DA:6,996
DA:7,996
DA:8,996
DA:9,1
DA:10,1
DA:11,1
DA:23,7
DA:24,7
DA:25,7
DA:26,7
DA:27,7
DA:28,20
DA:29,7
DA:30,7
DA:31,7
DA:32,7
DA:33,7
DA:34,7
DA:35,7
DA:36,7
DA:37,7
DA:38,7
DA:40,1002
DA:41,1002
DA:42,1002
DA:43,3996
DA:44,1002
DA:45,1002
DA:47,1001
DA:48,1001
DA:49,1001
DA:50,1001
DA:51,1001
DA:52,1001
DA:53,1001
DA:54,1001
DA:55,1001
DA:57,2
DA:58,2
DA:59,2
DA:61,2
DA:62,2
DA:63,2
DA:65,1
DA:66,1
DA:67,1
DA:69,1
DA:70,1
DA:71,1
DA:77,1001
DA:78,1001
DA:79,1001
DA:80,1001
DA:81,1001
DA:82,1001
DA:83,8
DA:84,993
DA:86,1001
DA:87,1001
DA:96,1
DA:97,1
DA:98,1
DA:99,1
DA:100,1
DA:101,1
DA:102,1
DA:103,1
DA:104,1
DA:105,1
DA:106,1
DA:107,1
DA:109,1
DA:110,1
DA:111,1
DA:112,1
DA:113,1
DA:114,1
DA:115,1
DA:116,1
DA:117,1
DA:118,1
DA:119,1
DA:120,1
DA:123,1
DA:124,1
DA:125,1
DA:126,1
DA:127,1
DA:128,1
DA:129,1
DA:130,1
DA:133,1
DA:134,1
DA:135,1
DA:137,1
DA:138,1
DA:140,1
DA:141,1
DA:142,1
DA:145,1
DA:146,1
DA:147,3
DA:148,3
DA:149,3
DA:150,1
DA:151,1
DA:152,1
DA:155,1
DA:156,1
DA:157,1
DA:158,1
DA:159,1
DA:160,1
DA:163,1
DA:164,1
DA:165,1
DA:166,1
DA:167,1
DA:168,1
DA:169,1
DA:170,1
BRF:0
BRH:0
LF:130
LH:130
end_of_record
SF:/home/andy/dev/euler-rust/8-largest-product-in-a-series/src/main.rs
FN:1,_RNvCse7mMGG7qS2y_27largest_product_in_a_series4main
FNDA:0,_RNvCse7mMGG7qS2y_27largest_product_in_a_series4main
FNF:1
FNH:0
DA:1,0
DA:2,0
DA:3,0
BRF:0
BRH:0
LF:3
LH:0
end_of_record