SF:/home/andy/dev/euler-rust/11-largest-product-in-a-grid/src/lib.rs
FN:77,_RNvNtCs9PBjpJx5kXp_25largest_product_in_a_grid5tests8setup_gp
FN:82,_RNvNtCs9PBjpJx5kXp_25largest_product_in_a_grid5testss_23can_create_grid_product
FN:90,_RNvNtCs9PBjpJx5kXp_25largest_product_in_a_grid5testss_20can_get_row_by_index
FN:109,_RNvNtCs9PBjpJx5kXp_25largest_product_in_a_grid5testss_14test_can_index
FN:123,_RNvNtCs9PBjpJx5kXp_25largest_product_in_a_grid5testss_32can_use_negative_indices_in_rows
FN:131,_RNvNtCs9PBjpJx5kXp_25largest_product_in_a_grid5testss_32can_use_negative_indices_in_cols
FN:6,_RNvCs9PBjpJx5kXp_25largest_product_in_a_grid9get_array
FN:31,_RNvCs9PBjpJx5kXp_25largest_product_in_a_grid12idx_to_usize
FN:45,_RNvMCs9PBjpJx5kXp_25largest_product_in_a_gridNtB2_11GridProduct3new
FN:49,_RNvMCs9PBjpJx5kXp_25largest_product_in_a_gridNtB2_11GridProduct3row
FN:66,_RNvXs_Cs9PBjpJx5kXp_25largest_product_in_a_gridNtB4_11GridProductINtNtNtCs5cYH0lLSdLc_4core3ops5index5IndexAlj2_E5index
FNDA:4,_RNvNtCs9PBjpJx5kXp_25largest_product_in_a_grid5tests8setup_gp
FNDA:1,_RNvNtCs9PBjpJx5kXp_25largest_product_in_a_grid5testss_23can_create_grid_product
FNDA:1,_RNvNtCs9PBjpJx5kXp_25largest_product_in_a_grid5testss_20can_get_row_by_index
FNDA:1,_RNvNtCs9PBjpJx5kXp_25largest_product_in_a_grid5testss_14test_can_index
FNDA:1,_RNvNtCs9PBjpJx5kXp_25largest_product_in_a_grid5testss_32can_use_negative_indices_in_rows
FNDA:1,_RNvNtCs9PBjpJx5kXp_25largest_product_in_a_grid5testss_32can_use_negative_indices_in_cols
FNDA:6,_RNvCs9PBjpJx5kXp_25largest_product_in_a_grid9get_array
FNDA:14,_RNvCs9PBjpJx5kXp_25largest_product_in_a_grid12idx_to_usize
FNDA:5,_RNvMCs9PBjpJx5kXp_25largest_product_in_a_gridNtB2_11GridProduct3new
FNDA:2,_RNvMCs9PBjpJx5kXp_25largest_product_in_a_gridNtB2_11GridProduct3row
FNDA:7,_RNvXs_Cs9PBjpJx5kXp_25largest_product_in_a_gridNtB4_11GridProductINtNtNtCs5cYH0lLSdLc_4core3ops5index5IndexAlj2_E5index
FNF:11
FNH:11
DA:6,6
DA:7,6
DA:8,6
DA:9,6
DA:10,6
DA:11,6
DA:12,6
DA:13,6
DA:14,6
DA:15,6
DA:16,6
DA:17,6
DA:18,6
DA:19,6
DA:20,6
DA:21,6
DA:22,6
DA:23,6
DA:24,6
DA:25,6
DA:26,6
DA:27,6
DA:28,6
DA:29,6
DA:31,14
DA:32,14
DA:33,9
DA:35,5
DA:37,14
DA:45,5
DA:46,5
DA:47,5
DA:49,2
DA:50,2
DA:51,2
DA:52,2
DA:53,2
DA:55,0
DA:58,2
DA:66,7
DA:67,7
DA:68,7
DA:69,7
DA:70,7
DA:77,4
DA:78,4
DA:79,4
DA:82,1
DA:83,1
DA:84,1
DA:85,1
DA:86,1
DA:87,1
DA:90,1
DA:91,1
DA:92,1
DA:93,1
DA:94,1
DA:95,1
DA:96,1
DA:97,1
DA:98,1
DA:100,1
DA:101,1
DA:102,1
DA:103,1
DA:104,1
DA:105,1
DA:106,1
DA:109,1
DA:110,1
DA:111,1
DA:112,1
DA:113,1
DA:114,1
DA:116,1
DA:117,1
DA:118,1
DA:119,1
DA:120,1
DA:123,1
DA:124,1
DA:125,1
DA:126,1
DA:127,1
DA:128,1
DA:131,1
DA:132,1
DA:133,1
DA:134,1
DA:135,1
BRF:0
BRH:0
LF:91
LH:90
end_of_record
SF:/home/andy/dev/euler-rust/11-largest-product-in-a-grid/src/main.rs
FN:1,_RNvCs1aFgitExHBB_25largest_product_in_a_grid4main
FNDA:0,_RNvCs1aFgitExHBB_25largest_product_in_a_grid4main
FNF:1
FNH:0
DA:1,0
DA:2,0
DA:3,0
BRF:0
BRH:0
LF:3
LH:0
end_of_record