SF:/home/andy/dev/euler-rust/15-lattice-paths/src/lattice_path.rs
FN:68,_RNCNvMNtCsbG5eVg52LWt_13lattice_paths12lattice_pathNtB4_11LatticePath13from_path_vec0B6_
FN:101,_RNCNvMNtCsbG5eVg52LWt_13lattice_paths12lattice_pathNtB4_11LatticePath16n_complete_paths0B6_
FN:119,_RNvNtNtCsbG5eVg52LWt_13lattice_paths12lattice_path5testss_21can_make_lattice_path
FN:134,_RNvNtNtCsbG5eVg52LWt_13lattice_paths12lattice_path5testss_13can_move_down
FN:144,_RNvNtNtCsbG5eVg52LWt_13lattice_paths12lattice_path5testss_14can_move_right
FN:154,_RNvNtNtCsbG5eVg52LWt_13lattice_paths12lattice_path5testss_23can_move_down_and_right
FN:167,_RNvNtNtCsbG5eVg52LWt_13lattice_paths12lattice_path5testss_23can_move_right_and_down
FN:180,_RNvNtNtCsbG5eVg52LWt_13lattice_paths12lattice_path5testss_37can_tell_if_at_the_end_of_the_lattice
FN:195,_RNvNtNtCsbG5eVg52LWt_13lattice_paths12lattice_path5testss_42can_get_path_size_needed_to_get_to_the_end
FN:201,_RNvNtNtCsbG5eVg52LWt_13lattice_paths12lattice_path5testss_59can_get_path_size_needed_to_get_to_the_end_of_a_3x3_lattice
FN:207,_RNvNtNtCsbG5eVg52LWt_13lattice_paths12lattice_path5testss_16can_get_path_len
FN:221,_RNvNtNtCsbG5eVg52LWt_13lattice_paths12lattice_path5testss_25can_tell_if_path_is_empty
FN:235,_RNvNtNtCsbG5eVg52LWt_13lattice_paths12lattice_path5testss_28can_tell_if_path_is_complete
FN:249,_RNvNtNtCsbG5eVg52LWt_13lattice_paths12lattice_path5testss_30can_convert_vec_of_u8s_to_path
FN:263,_RNvNtNtCsbG5eVg52LWt_13lattice_paths12lattice_path5testss_35can_generate_all_possible_path_vecs
FN:276,_RNvNtNtCsbG5eVg52LWt_13lattice_paths12lattice_path5testss_39can_return_the_number_of_complete_paths
FN:10,_RNvMNtCsbG5eVg52LWt_13lattice_paths12lattice_pathNtB2_11LatticePath3new
FN:16,_RNvMNtCsbG5eVg52LWt_13lattice_paths12lattice_pathNtB2_11LatticePath9move_down
FN:26,_RNvMNtCsbG5eVg52LWt_13lattice_paths12lattice_pathNtB2_11LatticePath10move_right
FN:36,_RNvMNtCsbG5eVg52LWt_13lattice_paths12lattice_pathNtB2_11LatticePath9is_at_end
FN:40,_RNvMNtCsbG5eVg52LWt_13lattice_paths12lattice_pathNtB2_11LatticePath22total_path_size_needed
FN:44,_RNvMNtCsbG5eVg52LWt_13lattice_paths12lattice_pathNtB2_11LatticePath3len
FN:49,_RNvMNtCsbG5eVg52LWt_13lattice_paths12lattice_pathNtB2_11LatticePath8is_empty
FN:53,_RNvMNtCsbG5eVg52LWt_13lattice_paths12lattice_pathNtB2_11LatticePath16is_path_complete
FN:57,_RNvMNtCsbG5eVg52LWt_13lattice_paths12lattice_pathNtB2_11LatticePath13from_path_vec
FN:79,_RNvMNtCsbG5eVg52LWt_13lattice_paths12lattice_pathNtB2_11LatticePath31generate_all_possible_path_vecs
FN:97,_RNvMNtCsbG5eVg52LWt_13lattice_paths12lattice_pathNtB2_11LatticePath16n_complete_paths
FNDA:68,_RNCNvMNtCsbG5eVg52LWt_13lattice_paths12lattice_pathNtB4_11LatticePath13from_path_vec0B6_
FNDA:16,_RNCNvMNtCsbG5eVg52LWt_13lattice_paths12lattice_pathNtB4_11LatticePath16n_complete_paths0B6_
FNDA:1,_RNvNtNtCsbG5eVg52LWt_13lattice_paths12lattice_path5testss_21can_make_lattice_path
FNDA:1,_RNvNtNtCsbG5eVg52LWt_13lattice_paths12lattice_path5testss_13can_move_down
FNDA:1,_RNvNtNtCsbG5eVg52LWt_13lattice_paths12lattice_path5testss_14can_move_right
FNDA:1,_RNvNtNtCsbG5eVg52LWt_13lattice_paths12lattice_path5testss_23can_move_down_and_right
FNDA:1,_RNvNtNtCsbG5eVg52LWt_13lattice_paths12lattice_path5testss_23can_move_right_and_down
FNDA:1,_RNvNtNtCsbG5eVg52LWt_13lattice_paths12lattice_path5testss_37can_tell_if_at_the_end_of_the_lattice
FNDA:1,_RNvNtNtCsbG5eVg52LWt_13lattice_paths12lattice_path5testss_42can_get_path_size_needed_to_get_to_the_end
FNDA:1,_RNvNtNtCsbG5eVg52LWt_13lattice_paths12lattice_path5testss_59can_get_path_size_needed_to_get_to_the_end_of_a_3x3_lattice
FNDA:1,_RNvNtNtCsbG5eVg52LWt_13lattice_paths12lattice_path5testss_16can_get_path_len
FNDA:1,_RNvNtNtCsbG5eVg52LWt_13lattice_paths12lattice_path5testss_25can_tell_if_path_is_empty
FNDA:1,_RNvNtNtCsbG5eVg52LWt_13lattice_paths12lattice_path5testss_28can_tell_if_path_is_complete
FNDA:1,_RNvNtNtCsbG5eVg52LWt_13lattice_paths12lattice_path5testss_30can_convert_vec_of_u8s_to_path
FNDA:1,_RNvNtNtCsbG5eVg52LWt_13lattice_paths12lattice_path5testss_35can_generate_all_possible_path_vecs
FNDA:1,_RNvNtNtCsbG5eVg52LWt_13lattice_paths12lattice_path5testss_39can_return_the_number_of_complete_paths
FNDA:32,_RNvMNtCsbG5eVg52LWt_13lattice_paths12lattice_pathNtB2_11LatticePath3new
FNDA:54,_RNvMNtCsbG5eVg52LWt_13lattice_paths12lattice_pathNtB2_11LatticePath9move_down
FNDA:54,_RNvMNtCsbG5eVg52LWt_13lattice_paths12lattice_pathNtB2_11LatticePath10move_right
FNDA:5,_RNvMNtCsbG5eVg52LWt_13lattice_paths12lattice_pathNtB2_11LatticePath9is_at_end
FNDA:43,_RNvMNtCsbG5eVg52LWt_13lattice_paths12lattice_pathNtB2_11LatticePath22total_path_size_needed
FNDA:28,_RNvMNtCsbG5eVg52LWt_13lattice_paths12lattice_pathNtB2_11LatticePath3len
FNDA:2,_RNvMNtCsbG5eVg52LWt_13lattice_paths12lattice_pathNtB2_11LatticePath8is_empty
FNDA:21,_RNvMNtCsbG5eVg52LWt_13lattice_paths12lattice_pathNtB2_11LatticePath16is_path_complete
FNDA:17,_RNvMNtCsbG5eVg52LWt_13lattice_paths12lattice_pathNtB2_11LatticePath13from_path_vec
FNDA:2,_RNvMNtCsbG5eVg52LWt_13lattice_paths12lattice_pathNtB2_11LatticePath31generate_all_possible_path_vecs
FNDA:1,_RNvMNtCsbG5eVg52LWt_13lattice_paths12lattice_pathNtB2_11LatticePath16n_complete_paths
FNF:27
FNH:27
DA:10,32
DA:11,32
DA:12,32
DA:13,32
DA:14,32
DA:16,54
DA:17,54
DA:18,44
DA:19,44
DA:20,44
DA:22,10
DA:24,54
DA:26,54
DA:27,54
DA:28,44
DA:29,44
DA:30,44
DA:32,10
DA:34,54
DA:36,5
DA:37,5
DA:38,5
DA:40,43
DA:41,43
DA:42,43
DA:44,28
DA:45,28
DA:46,28
DA:49,2
DA:50,2
DA:51,2
DA:53,21
DA:54,21
DA:55,21
DA:57,17
DA:58,17
DA:59,17
DA:60,17
DA:61,0
DA:62,0
DA:63,0
DA:64,0
DA:65,0
DA:66,17
DA:67,17
DA:68,68
DA:69,68
DA:70,34
DA:71,34
DA:72,0
DA:74,68
DA:75,17
DA:76,17
DA:77,17
DA:79,2
DA:80,2
DA:81,2
DA:83,32
DA:84,32
DA:85,32
DA:86,128
DA:87,128
DA:88,128
DA:89,128
DA:90,32
DA:91,32
DA:94,2
DA:95,2
DA:97,1
DA:98,1
DA:99,1
DA:100,1
DA:101,16
DA:102,16
DA:103,16
DA:104,6
DA:105,10
DA:106,0
DA:107,16
DA:108,1
DA:109,1
DA:110,1
DA:119,1
DA:120,1
DA:121,1
DA:122,1
DA:123,1
DA:125,1
DA:126,1
DA:127,1
DA:128,1
DA:129,1
DA:130,1
DA:131,1
DA:134,1
DA:135,1
DA:136,1
DA:137,1
DA:138,1
DA:139,1
DA:140,1
DA:141,1
DA:144,1
DA:145,1
DA:146,1
DA:147,1
DA:148,1
DA:149,1
DA:150,1
DA:151,1
DA:154,1
DA:155,1
DA:156,1
DA:157,1
DA:158,1
DA:159,1
DA:160,1
DA:161,1
DA:162,1
DA:163,1
DA:164,1
DA:167,1
DA:168,1
DA:169,1
DA:170,1
DA:171,1
DA:172,1
DA:173,1
DA:174,1
DA:175,1
DA:176,1
DA:177,1
DA:180,1
DA:181,1
DA:182,1
DA:183,1
DA:184,1
DA:185,1
DA:186,1
DA:188,1
DA:189,1
DA:190,1
DA:191,1
DA:192,1
DA:195,1
DA:196,1
DA:197,1
DA:198,1
DA:201,1
DA:202,1
DA:203,1
DA:204,1
DA:207,1
DA:208,1
DA:209,1
DA:210,1
DA:211,1
DA:212,1
DA:213,1
DA:214,1
DA:215,1
DA:216,1
DA:217,1
DA:218,1
DA:221,1
DA:222,1
DA:223,1
DA:224,1
DA:225,1
DA:226,1
DA:227,1
DA:228,1
DA:229,1
DA:230,1
DA:231,1
DA:232,1
DA:235,1
DA:236,1
DA:237,1
DA:238,1
DA:239,1
DA:240,1
DA:241,1
DA:242,1
DA:243,1
DA:244,1
DA:245,1
DA:246,1
DA:249,1
DA:250,1
DA:251,1
DA:252,1
DA:253,1
DA:254,1
DA:255,1
DA:256,1
DA:257,1
DA:258,1
DA:259,1
DA:260,1
DA:263,1
DA:264,1
DA:265,1
DA:266,1
DA:267,1
DA:268,1
DA:269,1
DA:270,1
DA:271,1
DA:272,1
DA:273,1
DA:276,1
DA:277,1
DA:278,1
DA:279,1
DA:280,1
DA:281,1
BRF:0
BRH:0
LF:221
LH:214
end_of_record
SF:/home/andy/dev/euler-rust/15-lattice-paths/src/main.rs
FN:4,_RNvCsaLUjeE1R0Bz_13lattice_paths4main
FNDA:0,_RNvCsaLUjeE1R0Bz_13lattice_paths4main
FNF:1
FNH:0
DA:4,0
DA:5,0
DA:6,0
DA:7,0
DA:8,0
DA:9,0
BRF:0
BRH:0
LF:6
LH:0
end_of_record
SF:/home/andy/dev/euler-rust/15-lattice-paths/src/square_lattice.rs
FN:13,_RNCNvMNtCsbG5eVg52LWt_13lattice_paths14square_latticeNtB4_13SquareLattice3new0B6_
FN:16,_RNCNCNvMNtCsbG5eVg52LWt_13lattice_paths14square_latticeNtB6_13SquareLattice3new00B8_
FN:17,_RNCNCNvMNtCsbG5eVg52LWt_13lattice_paths14square_latticeNtB6_13SquareLattice3new0s_0B8_
FN:82,_RNvNtNtCsbG5eVg52LWt_13lattice_paths14square_lattice5testss_19test_square_lattice
FN:94,_RNvNtNtCsbG5eVg52LWt_13lattice_paths14square_lattice5testss_51test_new_method_is_same_as_building_struct_directly
FN:115,_RNvNtNtCsbG5eVg52LWt_13lattice_paths14square_lattice5testss_7can_get
FN:126,_RNvNtNtCsbG5eVg52LWt_13lattice_paths14square_lattice5testss_7can_set
FN:133,_RNvNtNtCsbG5eVg52LWt_13lattice_paths14square_lattice5testss_43from_initial_position_can_move_to_the_right
FN:141,_RNvNtNtCsbG5eVg52LWt_13lattice_paths14square_lattice5testss_35from_initial_position_can_move_down
FN:149,_RNvNtNtCsbG5eVg52LWt_13lattice_paths14square_lattice5testss_59from_initial_position_can_move_right_size_times_but_no_more
FN:177,_RNvNtNtCsbG5eVg52LWt_13lattice_paths14square_lattice5testss_58from_initial_position_can_move_down_size_times_but_no_more
FN:9,_RNvMNtCsbG5eVg52LWt_13lattice_paths14square_latticeNtB2_13SquareLattice3new
FN:28,_RNvMNtCsbG5eVg52LWt_13lattice_paths14square_latticeNtB2_13SquareLattice14n_nodes_in_row
FN:32,_RNvMNtCsbG5eVg52LWt_13lattice_paths14square_latticeNtB2_13SquareLattice3get
FN:36,_RNvMNtCsbG5eVg52LWt_13lattice_paths14square_latticeNtB2_13SquareLattice3set
FN:40,_RNvMNtCsbG5eVg52LWt_13lattice_paths14square_latticeNtB2_13SquareLattice7display
FN:49,_RNvMNtCsbG5eVg52LWt_13lattice_paths14square_latticeNtB2_13SquareLattice14is_last_column
FN:53,_RNvMNtCsbG5eVg52LWt_13lattice_paths14square_latticeNtB2_13SquareLattice11is_last_row
FN:57,_RNvMNtCsbG5eVg52LWt_13lattice_paths14square_latticeNtB2_13SquareLattice10move_right
FN:66,_RNvMNtCsbG5eVg52LWt_13lattice_paths14square_latticeNtB2_13SquareLattice9move_down
FNDA:157,_RNCNvMNtCsbG5eVg52LWt_13lattice_paths14square_latticeNtB4_13SquareLattice3new0B6_
FNDA:619,_RNCNCNvMNtCsbG5eVg52LWt_13lattice_paths14square_latticeNtB6_13SquareLattice3new00B8_
FNDA:619,_RNCNCNvMNtCsbG5eVg52LWt_13lattice_paths14square_latticeNtB6_13SquareLattice3new0s_0B8_
FNDA:1,_RNvNtNtCsbG5eVg52LWt_13lattice_paths14square_lattice5testss_19test_square_lattice
FNDA:1,_RNvNtNtCsbG5eVg52LWt_13lattice_paths14square_lattice5testss_51test_new_method_is_same_as_building_struct_directly
FNDA:1,_RNvNtNtCsbG5eVg52LWt_13lattice_paths14square_lattice5testss_7can_get
FNDA:1,_RNvNtNtCsbG5eVg52LWt_13lattice_paths14square_lattice5testss_7can_set
FNDA:1,_RNvNtNtCsbG5eVg52LWt_13lattice_paths14square_lattice5testss_43from_initial_position_can_move_to_the_right
FNDA:1,_RNvNtNtCsbG5eVg52LWt_13lattice_paths14square_lattice5testss_35from_initial_position_can_move_down
FNDA:1,_RNvNtNtCsbG5eVg52LWt_13lattice_paths14square_lattice5testss_59from_initial_position_can_move_right_size_times_but_no_more
FNDA:1,_RNvNtNtCsbG5eVg52LWt_13lattice_paths14square_lattice5testss_58from_initial_position_can_move_down_size_times_but_no_more
FNDA:44,_RNvMNtCsbG5eVg52LWt_13lattice_paths14square_latticeNtB2_13SquareLattice3new
FNDA:281,_RNvMNtCsbG5eVg52LWt_13lattice_paths14square_latticeNtB2_13SquareLattice14n_nodes_in_row
FNDA:13,_RNvMNtCsbG5eVg52LWt_13lattice_paths14square_latticeNtB2_13SquareLattice3get
FNDA:1,_RNvMNtCsbG5eVg52LWt_13lattice_paths14square_latticeNtB2_13SquareLattice3set
FNDA:1,_RNvMNtCsbG5eVg52LWt_13lattice_paths14square_latticeNtB2_13SquareLattice7display
FNDA:113,_RNvMNtCsbG5eVg52LWt_13lattice_paths14square_latticeNtB2_13SquareLattice14is_last_column
FNDA:109,_RNvMNtCsbG5eVg52LWt_13lattice_paths14square_latticeNtB2_13SquareLattice11is_last_row
FNDA:54,_RNvMNtCsbG5eVg52LWt_13lattice_paths14square_latticeNtB2_13SquareLattice10move_right
FNDA:54,_RNvMNtCsbG5eVg52LWt_13lattice_paths14square_latticeNtB2_13SquareLattice9move_down
FNF:20
FNH:20
DA:9,44
DA:10,44
DA:11,44
DA:12,44
DA:13,157
DA:14,157
DA:15,157
DA:16,619
DA:17,619
DA:18,157
DA:19,157
DA:20,157
DA:21,44
DA:22,44
DA:23,44
DA:24,44
DA:25,44
DA:26,44
DA:28,281
DA:29,281
DA:30,281
DA:32,13
DA:33,13
DA:34,13
DA:36,1
DA:37,1
DA:38,1
DA:40,1
DA:41,6
DA:42,36
DA:43,36
DA:44,36
DA:45,6
DA:47,1
DA:49,113
DA:50,113
DA:51,113
DA:53,109
DA:54,109
DA:55,109
DA:57,54
DA:58,54
DA:59,2
DA:60,52
DA:61,52
DA:62,52
DA:63,52
DA:64,54
DA:66,54
DA:67,54
DA:68,2
DA:69,52
DA:70,52
DA:71,52
DA:72,52
DA:73,54
DA:82,1
DA:83,1
DA:84,1
DA:85,1
DA:86,1
DA:87,1
DA:88,1
DA:89,1
DA:90,1
DA:91,1
DA:94,1
DA:95,1
DA:96,1
DA:97,1
DA:98,1
DA:99,1
DA:100,1
DA:101,1
DA:102,1
DA:103,1
DA:104,1
DA:105,1
DA:106,1
DA:107,1
DA:108,1
DA:109,1
DA:110,1
DA:111,1
DA:112,1
DA:115,1
DA:116,1
DA:117,1
DA:118,1
DA:119,1
DA:120,1
DA:121,1
DA:122,1
DA:123,1
DA:126,1
DA:127,1
DA:128,1
DA:129,1
DA:130,1
DA:133,1
DA:134,1
DA:135,1
DA:136,1
DA:137,1
DA:138,1
DA:141,1
DA:142,1
DA:143,1
DA:144,1
DA:145,1
DA:146,1
DA:149,1
DA:150,1
DA:151,1
DA:153,1
DA:154,1
DA:156,1
DA:157,1
DA:159,1
DA:160,1
DA:162,1
DA:163,1
DA:165,1
DA:166,1
DA:168,1
DA:170,1
DA:171,1
DA:172,1
DA:173,1
DA:174,1
DA:177,1
DA:178,1
DA:179,1
DA:181,1
DA:182,1
DA:184,1
DA:185,1
DA:187,1
DA:188,1
DA:190,1
DA:191,1
DA:193,1
DA:194,1
DA:196,1
DA:198,1
DA:199,1
DA:200,1
DA:201,1
DA:202,1
BRF:0
BRH:0
LF:153
LH:153
end_of_record