SF:/home/andy/dev/euler-rust/euler-utils/src/prime_generator.rs
FN:228,_RNCNvNtNtCs58Ydh7oBMrp_11euler_utils15prime_generator5testss_14test_nth_prime0B7_
FN:11,_RNvMNtCs58Ydh7oBMrp_11euler_utils15prime_generatorNtB2_14PrimeGenerator3new
FN:18,_RNvMNtCs58Ydh7oBMrp_11euler_utils15prime_generatorNtB2_14PrimeGenerator18get_primes_below_n
FN:22,_RNvMNtCs58Ydh7oBMrp_11euler_utils15prime_generatorNtB2_14PrimeGenerator18sum_primes_below_n
FN:26,_RNvMNtCs58Ydh7oBMrp_11euler_utils15prime_generatorNtB2_14PrimeGenerator14get_next_prime
FN:35,_RNvMNtCs58Ydh7oBMrp_11euler_utils15prime_generatorNtB2_14PrimeGenerator3len
FN:40,_RNvMNtCs58Ydh7oBMrp_11euler_utils15prime_generatorNtB2_14PrimeGenerator8is_empty
FN:44,_RNvMNtCs58Ydh7oBMrp_11euler_utils15prime_generatorNtB2_14PrimeGenerator11current_max
FN:48,_RNvMNtCs58Ydh7oBMrp_11euler_utils15prime_generatorNtB2_14PrimeGenerator9add_prime
FN:53,_RNvMNtCs58Ydh7oBMrp_11euler_utils15prime_generatorNtB2_14PrimeGenerator8is_prime
FN:58,_RNvMNtCs58Ydh7oBMrp_11euler_utils15prime_generatorNtB2_14PrimeGenerator9nth_prime
FN:68,_RNvMNtCs58Ydh7oBMrp_11euler_utils15prime_generatorNtB2_14PrimeGenerator26is_prime_with_small_primes
FN:74,_RNvMNtCs58Ydh7oBMrp_11euler_utils15prime_generatorNtB2_14PrimeGenerator29get_primes_below_n_with_sieve
FN:94,_RNvMNtCs58Ydh7oBMrp_11euler_utils15prime_generatorNtB2_14PrimeGenerator28get_primes_below_n_in_series
FN:98,_RNvMNtCs58Ydh7oBMrp_11euler_utils15prime_generatorNtB2_14PrimeGenerator21parallel_primes_up_to
FN:121,_RNvMNtCs58Ydh7oBMrp_11euler_utils15prime_generatorNtB2_14PrimeGenerator21get_small_prime_limit
FN:125,_RNvMNtCs58Ydh7oBMrp_11euler_utils15prime_generatorNtB2_14PrimeGenerator21generate_small_primes
FN:130,_RNvMNtCs58Ydh7oBMrp_11euler_utils15prime_generatorNtB2_14PrimeGenerator27mark_larger_primes_parallel
FN:157,_RNvXs0_NtCs58Ydh7oBMrp_11euler_utils15prime_generatorNtB5_14PrimeGeneratorNtNtNtNtCs5cYH0lLSdLc_4core4iter6traits8iterator8Iterator4next
FN:23,_RNCNvMNtCs58Ydh7oBMrp_11euler_utils15prime_generatorNtB4_14PrimeGenerator18sum_primes_below_n0B6_
FN:55,_RNCNvMNtCs58Ydh7oBMrp_11euler_utils15prime_generatorNtB4_14PrimeGenerator8is_prime0B6_
FN:71,_RNCNvMNtCs58Ydh7oBMrp_11euler_utils15prime_generatorNtB4_14PrimeGenerator26is_prime_with_small_primes0B6_
FN:83,_RNCNvMNtCs58Ydh7oBMrp_11euler_utils15prime_generatorNtB4_14PrimeGenerator29get_primes_below_n_with_sieve0B6_
FN:90,_RNCNvMNtCs58Ydh7oBMrp_11euler_utils15prime_generatorNtB4_14PrimeGenerator29get_primes_below_n_with_sieves_0B6_
FN:112,_RNCNvMNtCs58Ydh7oBMrp_11euler_utils15prime_generatorNtB4_14PrimeGenerator21parallel_primes_up_to0B6_
FN:116,_RNCNvMNtCs58Ydh7oBMrp_11euler_utils15prime_generatorNtB4_14PrimeGenerator21parallel_primes_up_tos_0B6_
FN:136,_RNCNvMNtCs58Ydh7oBMrp_11euler_utils15prime_generatorNtB4_14PrimeGenerator27mark_larger_primes_parallel0B6_
FN:137,_RNCNvMNtCs58Ydh7oBMrp_11euler_utils15prime_generatorNtB4_14PrimeGenerator27mark_larger_primes_parallels_0B6_
FN:158,_RNCNvXs0_NtCs58Ydh7oBMrp_11euler_utils15prime_generatorNtB7_14PrimeGeneratorNtNtNtNtCs5cYH0lLSdLc_4core4iter6traits8iterator8Iterator4next0B9_
FN:149,_RNvXs_NtCs58Ydh7oBMrp_11euler_utils15prime_generatorNtB4_14PrimeGeneratorNtNtCs5cYH0lLSdLc_4core7default7Default7default
FN:221,_RNvNtNtCs58Ydh7oBMrp_11euler_utils15prime_generator5tests13get_nth_prime
FN:242,_RNvNtNtCs58Ydh7oBMrp_11euler_utils15prime_generator5tests40test_series_equivalent_to_parallel_for_n
FN:332,_RNvNtNtCs58Ydh7oBMrp_11euler_utils15prime_generator5tests17primes_below_1000
FN:178,_RNvNtNtCs58Ydh7oBMrp_11euler_utils15prime_generator5testss_15can_make_object
FN:189,_RNvNtNtCs58Ydh7oBMrp_11euler_utils15prime_generator5testss_21can_get_len_of_primes
FN:196,_RNvNtNtCs58Ydh7oBMrp_11euler_utils15prime_generator5testss_18can_push_new_prime
FN:204,_RNvNtNtCs58Ydh7oBMrp_11euler_utils15prime_generator5testss_42can_test_next_number_to_see_if_it_is_prime
FN:213,_RNvNtNtCs58Ydh7oBMrp_11euler_utils15prime_generator5testss_59can_get_current_max_prime_before_and_after_adding_a_new_one
FN:227,_RNvNtNtCs58Ydh7oBMrp_11euler_utils15prime_generator5testss_14test_nth_prime
FN:236,_RNvNtNtCs58Ydh7oBMrp_11euler_utils15prime_generator5testss_18test_next_none_arm
FN:251,_RNvNtNtCs58Ydh7oBMrp_11euler_utils15prime_generator5testss_60getting_primes_in_series_is_equivalent_to_in_parallel_for_50
FN:256,_RNvNtNtCs58Ydh7oBMrp_11euler_utils15prime_generator5testss_61getting_primes_in_series_is_equivalent_to_in_parallel_for_100
FN:261,_RNvNtNtCs58Ydh7oBMrp_11euler_utils15prime_generator5testss_62getting_primes_in_series_is_equivalent_to_in_parallel_for_1000
FN:266,_RNvNtNtCs58Ydh7oBMrp_11euler_utils15prime_generator5testss_21test_sum_primes_lt_10
FN:275,_RNvNtNtCs58Ydh7oBMrp_11euler_utils15prime_generator5testss_41test_sum_primes_lt_11_does_not_include_11
FN:284,_RNvNtNtCs58Ydh7oBMrp_11euler_utils15prime_generator5testss_37test_sum_primes_lt_12_does_include_11
FN:293,_RNvNtNtCs58Ydh7oBMrp_11euler_utils15prime_generator5testss_19test_sieve_up_to_10
FN:299,_RNvNtNtCs58Ydh7oBMrp_11euler_utils15prime_generator5testss_19test_sieve_up_to_30
FN:305,_RNvNtNtCs58Ydh7oBMrp_11euler_utils15prime_generator5testss_36test_is_prime_with_small_primes_only
FN:319,_RNvNtNtCs58Ydh7oBMrp_11euler_utils15prime_generator5testss_24test_get_primes_below_10
FN:326,_RNvNtNtCs58Ydh7oBMrp_11euler_utils15prime_generator5testss_24test_get_primes_below_30
FN:348,_RNvNtNtCs58Ydh7oBMrp_11euler_utils15prime_generator5testss_26test_get_primes_below_1000
FN:357,_RNvNtNtCs58Ydh7oBMrp_11euler_utils15prime_generator5testss_13test_is_empty
FN:366,_RNvNtNtCs58Ydh7oBMrp_11euler_utils15prime_generator5testss_14test_0th_prime
FN:372,_RNvNtNtCs58Ydh7oBMrp_11euler_utils15prime_generator5testss_19test_primes_up_to_0
FN:380,_RNvNtNtCs58Ydh7oBMrp_11euler_utils15prime_generator5testss_19test_primes_up_to_1
FN:389,_RNvNtNtCs58Ydh7oBMrp_11euler_utils15prime_generator5testss_19test_get_next_prime
FN:402,_RNvNtNtCs58Ydh7oBMrp_11euler_utils15prime_generator5testss_13test_is_prime
FNDA:50,_RNCNvNtNtCs58Ydh7oBMrp_11euler_utils15prime_generator5testss_14test_nth_prime0B7_
FNDA:121,_RNvMNtCs58Ydh7oBMrp_11euler_utils15prime_generatorNtB2_14PrimeGenerator3new
FNDA:7,_RNvMNtCs58Ydh7oBMrp_11euler_utils15prime_generatorNtB2_14PrimeGenerator18get_primes_below_n
FNDA:3,_RNvMNtCs58Ydh7oBMrp_11euler_utils15prime_generatorNtB2_14PrimeGenerator18sum_primes_below_n
FNDA:2,_RNvMNtCs58Ydh7oBMrp_11euler_utils15prime_generatorNtB2_14PrimeGenerator14get_next_prime
FNDA:4,_RNvMNtCs58Ydh7oBMrp_11euler_utils15prime_generatorNtB2_14PrimeGenerator3len
FNDA:2,_RNvMNtCs58Ydh7oBMrp_11euler_utils15prime_generatorNtB2_14PrimeGenerator8is_empty
FNDA:2455,_RNvMNtCs58Ydh7oBMrp_11euler_utils15prime_generatorNtB2_14PrimeGenerator11current_max
FNDA:2831,_RNvMNtCs58Ydh7oBMrp_11euler_utils15prime_generatorNtB2_14PrimeGenerator9add_prime
FNDA:10040,_RNvMNtCs58Ydh7oBMrp_11euler_utils15prime_generatorNtB2_14PrimeGenerator8is_prime
FNDA:101,_RNvMNtCs58Ydh7oBMrp_11euler_utils15prime_generatorNtB2_14PrimeGenerator9nth_prime
FNDA:2066,_RNvMNtCs58Ydh7oBMrp_11euler_utils15prime_generatorNtB2_14PrimeGenerator26is_prime_with_small_primes
FNDA:15,_RNvMNtCs58Ydh7oBMrp_11euler_utils15prime_generatorNtB2_14PrimeGenerator29get_primes_below_n_with_sieve
FNDA:9,_RNvMNtCs58Ydh7oBMrp_11euler_utils15prime_generatorNtB2_14PrimeGenerator28get_primes_below_n_in_series
FNDA:12,_RNvMNtCs58Ydh7oBMrp_11euler_utils15prime_generatorNtB2_14PrimeGenerator21parallel_primes_up_to
FNDA:8,_RNvMNtCs58Ydh7oBMrp_11euler_utils15prime_generatorNtB2_14PrimeGenerator21get_small_prime_limit
FNDA:4,_RNvMNtCs58Ydh7oBMrp_11euler_utils15prime_generatorNtB2_14PrimeGenerator21generate_small_primes
FNDA:4,_RNvMNtCs58Ydh7oBMrp_11euler_utils15prime_generatorNtB2_14PrimeGenerator27mark_larger_primes_parallel
FNDA:2453,_RNvXs0_NtCs58Ydh7oBMrp_11euler_utils15prime_generatorNtB5_14PrimeGeneratorNtNtNtNtCs5cYH0lLSdLc_4core4iter6traits8iterator8Iterator4next
FNDA:14,_RNCNvMNtCs58Ydh7oBMrp_11euler_utils15prime_generatorNtB4_14PrimeGenerator18sum_primes_below_n0B6_
FNDA:53437,_RNCNvMNtCs58Ydh7oBMrp_11euler_utils15prime_generatorNtB4_14PrimeGenerator8is_prime0B6_
FNDA:6865,_RNCNvMNtCs58Ydh7oBMrp_11euler_utils15prime_generatorNtB4_14PrimeGenerator26is_prime_with_small_primes0B6_
FNDA:1706,_RNCNvMNtCs58Ydh7oBMrp_11euler_utils15prime_generatorNtB4_14PrimeGenerator29get_primes_below_n_with_sieve0B6_
FNDA:1380,_RNCNvMNtCs58Ydh7oBMrp_11euler_utils15prime_generatorNtB4_14PrimeGenerator29get_primes_below_n_with_sieves_0B6_
FNDA:376,_RNCNvMNtCs58Ydh7oBMrp_11euler_utils15prime_generatorNtB4_14PrimeGenerator21parallel_primes_up_to0B6_
FNDA:376,_RNCNvMNtCs58Ydh7oBMrp_11euler_utils15prime_generatorNtB4_14PrimeGenerator21parallel_primes_up_tos_0B6_
FNDA:2064,_RNCNvMNtCs58Ydh7oBMrp_11euler_utils15prime_generatorNtB4_14PrimeGenerator27mark_larger_primes_parallel0B6_
FNDA:346,_RNCNvMNtCs58Ydh7oBMrp_11euler_utils15prime_generatorNtB4_14PrimeGenerator27mark_larger_primes_parallels_0B6_
FNDA:10037,_RNCNvXs0_NtCs58Ydh7oBMrp_11euler_utils15prime_generatorNtB7_14PrimeGeneratorNtNtNtNtCs5cYH0lLSdLc_4core4iter6traits8iterator8Iterator4next0B9_
FNDA:0,_RNvXs_NtCs58Ydh7oBMrp_11euler_utils15prime_generatorNtB4_14PrimeGeneratorNtNtCs5cYH0lLSdLc_4core7default7Default7default
FNDA:50,_RNvNtNtCs58Ydh7oBMrp_11euler_utils15prime_generator5tests13get_nth_prime
FNDA:3,_RNvNtNtCs58Ydh7oBMrp_11euler_utils15prime_generator5tests40test_series_equivalent_to_parallel_for_n
FNDA:1,_RNvNtNtCs58Ydh7oBMrp_11euler_utils15prime_generator5tests17primes_below_1000
FNDA:1,_RNvNtNtCs58Ydh7oBMrp_11euler_utils15prime_generator5testss_15can_make_object
FNDA:1,_RNvNtNtCs58Ydh7oBMrp_11euler_utils15prime_generator5testss_21can_get_len_of_primes
FNDA:1,_RNvNtNtCs58Ydh7oBMrp_11euler_utils15prime_generator5testss_18can_push_new_prime
FNDA:1,_RNvNtNtCs58Ydh7oBMrp_11euler_utils15prime_generator5testss_42can_test_next_number_to_see_if_it_is_prime
FNDA:1,_RNvNtNtCs58Ydh7oBMrp_11euler_utils15prime_generator5testss_59can_get_current_max_prime_before_and_after_adding_a_new_one
FNDA:1,_RNvNtNtCs58Ydh7oBMrp_11euler_utils15prime_generator5testss_14test_nth_prime
FNDA:1,_RNvNtNtCs58Ydh7oBMrp_11euler_utils15prime_generator5testss_18test_next_none_arm
FNDA:1,_RNvNtNtCs58Ydh7oBMrp_11euler_utils15prime_generator5testss_60getting_primes_in_series_is_equivalent_to_in_parallel_for_50
FNDA:1,_RNvNtNtCs58Ydh7oBMrp_11euler_utils15prime_generator5testss_61getting_primes_in_series_is_equivalent_to_in_parallel_for_100
FNDA:1,_RNvNtNtCs58Ydh7oBMrp_11euler_utils15prime_generator5testss_62getting_primes_in_series_is_equivalent_to_in_parallel_for_1000
FNDA:1,_RNvNtNtCs58Ydh7oBMrp_11euler_utils15prime_generator5testss_21test_sum_primes_lt_10
FNDA:1,_RNvNtNtCs58Ydh7oBMrp_11euler_utils15prime_generator5testss_41test_sum_primes_lt_11_does_not_include_11
FNDA:1,_RNvNtNtCs58Ydh7oBMrp_11euler_utils15prime_generator5testss_37test_sum_primes_lt_12_does_include_11
FNDA:1,_RNvNtNtCs58Ydh7oBMrp_11euler_utils15prime_generator5testss_19test_sieve_up_to_10
FNDA:1,_RNvNtNtCs58Ydh7oBMrp_11euler_utils15prime_generator5testss_19test_sieve_up_to_30
FNDA:1,_RNvNtNtCs58Ydh7oBMrp_11euler_utils15prime_generator5testss_36test_is_prime_with_small_primes_only
FNDA:1,_RNvNtNtCs58Ydh7oBMrp_11euler_utils15prime_generator5testss_24test_get_primes_below_10
FNDA:1,_RNvNtNtCs58Ydh7oBMrp_11euler_utils15prime_generator5testss_24test_get_primes_below_30
FNDA:1,_RNvNtNtCs58Ydh7oBMrp_11euler_utils15prime_generator5testss_26test_get_primes_below_1000
FNDA:1,_RNvNtNtCs58Ydh7oBMrp_11euler_utils15prime_generator5testss_13test_is_empty
FNDA:1,_RNvNtNtCs58Ydh7oBMrp_11euler_utils15prime_generator5testss_14test_0th_prime
FNDA:1,_RNvNtNtCs58Ydh7oBMrp_11euler_utils15prime_generator5testss_19test_primes_up_to_0
FNDA:1,_RNvNtNtCs58Ydh7oBMrp_11euler_utils15prime_generator5testss_19test_primes_up_to_1
FNDA:1,_RNvNtNtCs58Ydh7oBMrp_11euler_utils15prime_generator5testss_19test_get_next_prime
FNDA:1,_RNvNtNtCs58Ydh7oBMrp_11euler_utils15prime_generator5testss_13test_is_prime
FNF:58
FNH:57
DA:11,121
DA:12,121
DA:13,121
DA:14,121
DA:15,121
DA:16,121
DA:18,7
DA:19,7
DA:20,7
DA:22,3
DA:23,14
DA:24,3
DA:26,2
DA:27,2
DA:28,2
DA:29,0
DA:30,0
DA:31,0
DA:33,2
DA:35,4
DA:36,4
DA:37,4
DA:40,2
DA:41,2
DA:42,2
DA:44,2455
DA:45,2455
DA:46,2455
DA:48,2831
DA:49,2831
DA:50,2831
DA:51,2831
DA:53,10040
DA:54,10040
DA:55,53437
DA:56,10040
DA:58,101
DA:59,101
DA:60,1
DA:61,100
DA:62,2
DA:64,98
DA:66,101
DA:68,2066
DA:69,2066
DA:70,2066
DA:71,6865
DA:72,2066
DA:74,15
DA:75,15
DA:76,15
DA:77,15
DA:79,77
DA:80,77
DA:81,46
DA:82,46
DA:83,1706
DA:84,46
DA:87,15
DA:88,15
DA:89,15
DA:90,1380
DA:91,15
DA:92,15
DA:94,9
DA:95,9
DA:96,9
DA:98,12
DA:99,12
DA:100,12
DA:101,12
DA:102,2
DA:103,10
DA:104,6
DA:105,4
DA:106,4
DA:107,4
DA:108,4
DA:109,4
DA:110,4
DA:111,4
DA:112,376
DA:113,4
DA:114,4
DA:115,4
DA:116,376
DA:117,4
DA:118,4
DA:119,12
DA:121,8
DA:122,8
DA:123,8
DA:125,4
DA:126,4
DA:127,4
DA:128,4
DA:130,4
DA:131,4
DA:132,4
DA:133,4
DA:134,4
DA:135,4
DA:136,2064
DA:137,346
DA:138,346
DA:139,346
DA:140,346
DA:141,4
DA:142,4
DA:143,4
DA:144,4
DA:145,4
DA:149,0
DA:150,0
DA:151,0
DA:157,2453
DA:158,10037
DA:159,2453
DA:160,2452
DA:161,2452
DA:162,2452
DA:165,1
DA:166,1
DA:169,2453
DA:178,1
DA:179,1
DA:180,1
DA:181,1
DA:182,1
DA:183,1
DA:184,1
DA:185,1
DA:186,1
DA:189,1
DA:190,1
DA:191,1
DA:192,1
DA:193,1
DA:196,1
DA:197,1
DA:198,1
DA:199,1
DA:200,1
DA:201,1
DA:204,1
DA:205,1
DA:206,1
DA:208,1
DA:209,1
DA:210,1
DA:213,1
DA:214,1
DA:215,1
DA:217,1
DA:218,1
DA:219,1
DA:221,50
DA:222,50
DA:223,50
DA:224,50
DA:227,1
DA:228,50
DA:229,50
DA:230,50
DA:231,50
DA:232,1
DA:236,1
DA:237,1
DA:238,1
DA:239,1
DA:240,0
DA:242,3
DA:243,3
DA:244,3
DA:245,3
DA:246,3
DA:247,3
DA:248,3
DA:251,1
DA:252,1
DA:253,1
DA:256,1
DA:257,1
DA:258,1
DA:261,1
DA:262,1
DA:263,1
DA:266,1
DA:267,1
DA:268,1
DA:269,1
DA:270,1
DA:271,1
DA:272,1
DA:275,1
DA:276,1
DA:277,1
DA:278,1
DA:279,1
DA:280,1
DA:281,1
DA:284,1
DA:285,1
DA:286,1
DA:287,1
DA:288,1
DA:289,1
DA:290,1
DA:293,1
DA:294,1
DA:295,1
DA:296,1
DA:299,1
DA:300,1
DA:301,1
DA:302,1
DA:305,1
DA:306,1
DA:307,1
DA:308,1
DA:309,1
DA:310,1
DA:311,1
DA:312,1
DA:313,1
DA:314,1
DA:315,1
DA:316,1
DA:319,1
DA:320,1
DA:321,1
DA:322,1
DA:323,1
DA:326,1
DA:327,1
DA:328,1
DA:329,1
DA:330,1
DA:332,1
DA:333,1
DA:334,1
DA:335,1
DA:336,1
DA:337,1
DA:338,1
DA:339,1
DA:340,1
DA:341,1
DA:342,1
DA:343,1
DA:344,1
DA:345,1
DA:348,1
DA:349,1
DA:350,1
DA:351,1
DA:352,1
DA:353,1
DA:354,1
DA:357,1
DA:358,1
DA:359,1
DA:361,1
DA:362,1
DA:363,1
DA:366,1
DA:367,1
DA:368,1
DA:369,1
DA:372,1
DA:373,1
DA:374,1
DA:375,1
DA:376,1
DA:377,1
DA:378,1
DA:380,1
DA:381,1
DA:382,1
DA:383,1
DA:384,1
DA:385,1
DA:386,1
DA:389,1
DA:390,1
DA:391,1
DA:392,1
DA:393,1
DA:394,1
DA:396,1
DA:397,1
DA:398,1
DA:399,1
DA:402,1
DA:403,1
DA:404,1
DA:405,1
DA:406,1
DA:407,1
BRF:0
BRH:0
LF:312
LH:305
end_of_record
SF:/home/andy/dev/euler-rust/euler-utils/src/triangular_numbers.rs
FN:45,_RNvNtNtCs58Ydh7oBMrp_11euler_utils18triangular_numbers5testss_25can_get_triangular_number
FN:54,_RNvNtNtCs58Ydh7oBMrp_11euler_utils18triangular_numbers5testss_26can_get_divisors_of_number
FN:63,_RNvNtNtCs58Ydh7oBMrp_11euler_utils18triangular_numbers5testss_36can_get_number_of_divisors_of_number
FN:72,_RNvNtNtCs58Ydh7oBMrp_11euler_utils18triangular_numbers5testss_47can_get_first_triangular_number_with_3_divisors
FN:77,_RNvNtNtCs58Ydh7oBMrp_11euler_utils18triangular_numbers5testss_47can_get_first_triangular_number_with_5_divisors
FN:1,_RNvNtCs58Ydh7oBMrp_11euler_utils18triangular_numbers25get_first_with_n_divisors
FN:6,_RNvNtCs58Ydh7oBMrp_11euler_utils18triangular_numbers21get_triangular_number
FN:10,_RNvNtCs58Ydh7oBMrp_11euler_utils18triangular_numbers24count_divisors_of_number
FN:24,_RNvNtCs58Ydh7oBMrp_11euler_utils18triangular_numbers22get_divisors_of_number
FN:2,_RNCNvNtCs58Ydh7oBMrp_11euler_utils18triangular_numbers25get_first_with_n_divisors0B5_
FN:14,_RNCNvNtCs58Ydh7oBMrp_11euler_utils18triangular_numbers24count_divisors_of_number0B5_
FN:14,_RNCNvNtCs58Ydh7oBMrp_11euler_utils18triangular_numbers24count_divisors_of_numbers_0B5_
FN:28,_RNCNvNtCs58Ydh7oBMrp_11euler_utils18triangular_numbers22get_divisors_of_number0B5_
FN:28,_RNCNvNtCs58Ydh7oBMrp_11euler_utils18triangular_numbers22get_divisors_of_numbers_0B5_
FNDA:1,_RNvNtNtCs58Ydh7oBMrp_11euler_utils18triangular_numbers5testss_25can_get_triangular_number
FNDA:1,_RNvNtNtCs58Ydh7oBMrp_11euler_utils18triangular_numbers5testss_26can_get_divisors_of_number
FNDA:1,_RNvNtNtCs58Ydh7oBMrp_11euler_utils18triangular_numbers5testss_36can_get_number_of_divisors_of_number
FNDA:1,_RNvNtNtCs58Ydh7oBMrp_11euler_utils18triangular_numbers5testss_47can_get_first_triangular_number_with_3_divisors
FNDA:1,_RNvNtNtCs58Ydh7oBMrp_11euler_utils18triangular_numbers5testss_47can_get_first_triangular_number_with_5_divisors
FNDA:2,_RNvNtCs58Ydh7oBMrp_11euler_utils18triangular_numbers25get_first_with_n_divisors
FNDA:17,_RNvNtCs58Ydh7oBMrp_11euler_utils18triangular_numbers21get_triangular_number
FNDA:15,_RNvNtCs58Ydh7oBMrp_11euler_utils18triangular_numbers24count_divisors_of_number
FNDA:5,_RNvNtCs58Ydh7oBMrp_11euler_utils18triangular_numbers22get_divisors_of_number
FNDA:10,_RNCNvNtCs58Ydh7oBMrp_11euler_utils18triangular_numbers25get_first_with_n_divisors0B5_
FNDA:31,_RNCNvNtCs58Ydh7oBMrp_11euler_utils18triangular_numbers24count_divisors_of_number0B5_
FNDA:24,_RNCNvNtCs58Ydh7oBMrp_11euler_utils18triangular_numbers24count_divisors_of_numbers_0B5_
FNDA:8,_RNCNvNtCs58Ydh7oBMrp_11euler_utils18triangular_numbers22get_divisors_of_number0B5_
FNDA:7,_RNCNvNtCs58Ydh7oBMrp_11euler_utils18triangular_numbers22get_divisors_of_numbers_0B5_
FNF:14
FNH:14
DA:1,2
DA:2,10
DA:3,2
DA:4,2
DA:6,17
DA:7,17
DA:8,17
DA:10,15
DA:11,15
DA:12,15
DA:13,15
DA:14,31
DA:15,24
DA:16,24
DA:17,20
DA:18,20
DA:19,24
DA:20,15
DA:21,15
DA:22,15
DA:24,5
DA:25,5
DA:26,5
DA:27,5
DA:28,8
DA:29,7
DA:30,7
DA:31,5
DA:32,5
DA:33,7
DA:34,5
DA:35,5
DA:36,5
DA:37,5
DA:45,1
DA:46,1
DA:47,1
DA:48,1
DA:49,1
DA:50,1
DA:51,1
DA:54,1
DA:55,1
DA:56,1
DA:57,1
DA:58,1
DA:59,1
DA:60,1
DA:63,1
DA:64,1
DA:65,1
DA:66,1
DA:67,1
DA:68,1
DA:69,1
DA:72,1
DA:73,1
DA:74,1
DA:77,1
DA:78,1
DA:79,1
BRF:0
BRH:0
LF:68
LH:68
end_of_record